ccopy_reg
_reconstructor
p0
(ccircuit
Circuit
p1
c__builtin__
object
p2
Ntp3
Rp4
(dp5
S'elements'
p6
(dp7
V_81b5ad070dc011deb8c6000c295e15ce
p8
g0
(ccim14.iec61970.operational_limits
OperationalLimitSet
p9
g2
Ntp10
Rp11
(dp12
S'path_name'
p13
S''
p14
sS'name'
p15
S'Ratings'
p16
sS'uri'
p17
g8
sS'terminal'
p18
V./data/10_Bus.xml#
p19
sS'equipment'
p20
NsS'm_rid'
p21
g8
sS'local_name'
p22
g14
sS'modeling_authority_set'
p23
NsS'operational_limit_value'
p24
(lp25
sS'model'
p26
NsS'alias_name'
p27
g14
sS'description'
p28
S'Ratings for Branch 1_3_0_1 '
p29
sbsV_81b5acba0dc011deb8c6000c295e15ce
p30
g0
(ccim14.iec61970.generation.production
HydroGeneratingUnit
p31
g2
Ntp32
Rp33
(dp34
S'measurements'
p35
(lp36
sS'gross_to_net_active_power_curves'
p37
(lp38
sS'rated_net_max_p'
p39
g14
sS'psrstatus'
p40
NsS'reporting_group'
p41
(lp42
sS'rated_gross_min_p'
p43
g14
sS'high_control_limit'
p44
g14
sS'registered_generator'
p45
NsS'tie_line_pf'
p46
F0.0
sS'psr_lists'
p47
(lp48
sS'variable_cost'
p49
g14
sg21
g30
sS'schedule_steps'
p50
(lp51
sS'penalty_factor'
p52
F0.0
sS'energy_min_p'
p53
g14
sS'rated_gross_max_p'
p54
g14
sS'tailbay_loss_curve'
p55
(lp56
sS'erp_organisation_roles'
p57
(lp58
sS'low_control_limit'
p59
g14
sS'startup_cost'
p60
g14
sg15
S"1_5 '1 ' "
p61
sS'normal_ily_in_service'
p62
I00
sS'contingency_equipment'
p63
(lp64
sS'operational_limit_set'
p65
(lp66
sS'network_data_sets'
p67
(lp68
sg13
g14
sS'startup_time'
p69
g14
sS'disp_reserve_flag'
p70
I00
sS'asset_roles'
p71
(lp72
sg27
g14
sS'control_area_generating_unit'
p73
(lp74
sS'step_change'
p75
g14
sS'min_economic_p'
p76
g14
sS'lower_ramp_rate'
p77
g14
sS'base_p'
p78
g14
sS'energy_conversion_capability'
p79
S'generator'
p80
sS'equivalent'
p81
S'false'
p82
sS'control_response_rate'
p83
g14
sS'safety_documents'
p84
(lp85
sS'efficiency'
p86
g14
sS'fast_start_flag'
p87
I00
sS'spin_reserve_ramp'
p88
g14
sS'long_pf'
p89
F0.0
sS'operating_share'
p90
(lp91
sS'nominal_p'
p92
S'666.369'
p93
sS'gen_unit_op_schedule'
p94
NsS'gen_control_source'
p95
S'unavailable'
p96
sS'gen_unit_op_cost_curves'
p97
(lp98
sg22
g14
sS'hydro_unit_water_cost'
p99
F0.0
sS'alloc_spin_res_p'
p100
g14
sS'gen_operating_mode'
p101
S'mrn'
p102
sS'governor_scd'
p103
g14
sS'raise_ramp_rate'
p104
g14
sS'minimum_off_time'
p105
g14
sS'activity_records'
p106
(lp107
sS'initial_p'
p108
g14
sS'psrtype'
p109
NsS'operated_by_generation_provider'
p110
NsS'fuel_priority'
p111
I0
sS'sub_control_area'
p112
NsS'document_roles'
p113
(lp114
sS'penstock_loss_curve'
p115
NsS'circuits'
p116
(lp117
sS'change_items'
p118
(lp119
sS'circuit_sections'
p120
(lp121
sg23
NsS'synchronous_machines'
p122
(lp123
sS'governor_mpl'
p124
g14
sS'control_pulse_high'
p125
g14
sS'control_deadband'
p126
g14
sS'auto_cntrl_margin_p'
p127
g14
sS'maximum_allowable_spinning_reserve'
p128
g14
sS'hydro_power_plant'
p129
NsS'max_economic_p'
p130
g14
sS'model_detail'
p131
g14
sS'normal_pf'
p132
F0.0
sg28
S'         '
p133
sS'control_pulse_low'
p134
g14
sS'outage_schedule'
p135
NsS'short_pf'
p136
F0.0
sS'hydro_generating_efficiency_curves'
p137
(lp138
sS'max_operating_p'
p139
S'1000.000'
p140
sS'equipment_container'
p141
Nsg17
g30
sS'location_roles'
p142
(lp143
sS'min_operating_p'
p144
S'300.000'
p145
sS'customer_agreements'
p146
(lp147
sg26
NsS'gen_control_mode'
p148
S'pulse'
p149
sbsV_60007002000000000000000000000099
p150
g0
(ccim14.iec61970.core
Terminal
p151
g2
Ntp152
Rp153
(dp154
g13
g14
sS'branch_group_terminal'
p155
(lp156
sS'has_first_mutual_coupling'
p157
(lp158
sg65
(lp159
sS'conducting_equipment'
p160
Nsg27
g14
sS'tie_flow'
p161
(lp162
sS'topological_node'
p163
V./data/10_Bus.xml#
p164
sg35
(lp165
sS'terminal_constraints'
p166
(lp167
sS'regulating_control'
p168
(lp169
sg21
g150
sS'sv_power_flow'
p170
Nsg28
g14
sS'has_second_mutual_coupling'
p171
(lp172
sS'connected'
p173
S'false'
p174
sg26
Nsg15
g14
sg17
g150
sS'connectivity_node'
p175
Nsg22
g14
sg23
NsS'bushing_asset'
p176
NsbsV_81b5ad230dc011deb8c6000c295e15ce
p177
g0
(ccim14.iec61970.wires
TransformerWinding
p178
g2
Ntp179
Rp180
(dp181
g13
g14
sS'insulation_u'
p182
g14
sg118
g119
sS'from_winding_test'
p183
(lp184
sg40
NsS'outage_step_roles'
p185
(lp186
sS'protection_equipments'
p187
(lp188
sg142
g143
sS'sv_status'
p189
NsS'b0'
p190
S'0.002'
p191
sg21
g177
sg71
g72
sg27
g14
sS'connection_type'
p192
Vhttp://iec.ch/TC57/2009/CIM-schema-cim14#
p193
sS'phases'
p194
S'abn'
p195
sS'electrical_assets'
p196
(lp197
sS'grounded'
p198
I00
sS'winding_type'
p199
Vhttp://iec.ch/TC57/2009/CIM-schema-cim14#
p200
sg35
g36
sg47
g48
sS'emergency_s'
p201
S'340.00'
p202
sS'rated_s'
p203
S'320.00'
p204
sg109
NsS'rated_u'
p205
S'386.546667'
p206
sg41
g42
sg50
g51
sg81
I00
sg65
g66
sg57
g58
sS'phase_tap_changer'
p207
Nsg28
S'4_5_0_1  From Winding'
p208
sS'g0'
p209
S'0.001'
p210
sg135
NsS'to_winding_insulations'
p211
(lp212
sg22
g14
sg84
g85
sS'power_transformer'
p213
Nsg113
g114
sS'base_voltage'
p214
V./data/10_Bus.xml#
p215
sS'terminals'
p216
(lp217
sS'to_winding_test'
p218
(lp219
sS'short_term_s'
p220
S'330.00'
p221
sS'x0'
p222
S'87'
p223
sS'r'
p224
S'1.2999394319'
p225
sg90
g91
sg106
g107
sS'b'
p226
S'0.0000047651'
p227
sS'r0'
p228
S'2'
p229
sg15
S'4_5_0_1 '
p230
sS'g'
p231
S'0.0000006023'
p232
sg62
I00
sg116
g117
sg63
g64
sg141
Nsg17
g177
sS'clearance_tags'
p233
(lp234
sg120
g121
sS'from_winding_insulations'
p235
(lp236
sS'rground'
p237
S'0.01'
p238
sS'ratio_tap_changer'
p239
NsS'xground'
p240
S'0.02'
p241
sg146
g147
sg23
NsS'x'
p242
S'86.7672216243'
p243
sg26
Nsg67
g68
sbsV_10200000000000000000000000000088
p244
g0
(ccim14.iec61970.operational_limits
VoltageLimit
p245
g2
Ntp246
Rp247
(dp248
g13
g14
sg15
S'High'
p249
sg27
g14
sg28
S'EnergyConsumer 1 - HighVoltage'
p250
sg17
g244
sS'value'
p251
S'120'
p252
sg65
V./data/10_Bus.xml#
p253
sg22
g14
sg23
NsS'operational_limit_type'
p254
V./data/10_Bus.xml#
p255
sg26
NsS'type'
p256
g14
sg21
g244
sbsV_50100000000000000000000000000077
p257
g0
(ccim14.iec61970.wires
SynchronousMachine
p258
g2
Ntp259
Rp260
(dp261
g13
g14
sg141
Nsg40
Nsg203
S'10.000'
p262
sg187
g188
sg142
g143
sS'hydro_pump'
p263
Nsg113
g114
sg233
g234
sg21
g257
sg71
g72
sg27
g14
sg185
g186
sg22
g14
sg106
g107
sS'coolant_type'
p264
S'water'
p265
sS'prime_movers'
p266
(lp267
sS'min_u'
p268
g14
sg35
g36
sg47
g48
sS'min_q'
p269
S'0.000'
p270
sS'controls'
p271
(lp272
sS'manual_to_avr'
p273
g14
sg168
NsS'max_u'
p274
g14
sg109
NsS'damping'
p275
g14
sS'q_percent'
p276
S'100.0'
p277
sS'max_q'
p278
S'0.0'
p279
sS'base_q'
p280
S'0.0'
p281
sg65
g66
sg256
Vhttp://iec.ch/TC57/2009/CIM-schema-cim14#
p282
sS'x_direct_subtrans'
p283
g14
sg57
g58
sg26
Nsg242
S'484.0'
p284
sg41
g42
sg28
S'           '
p285
sS'reactive_capability_curves'
p286
(lp287
sg135
Nsg81
S'true'
p288
sg146
g147
sg194
g195
sS'x_direct_sync'
p289
g14
sg214
Nsg216
g217
sS'x_quad_sync'
p290
g14
sS'x2'
p291
S'486.0'
p292
sg84
g85
sg222
S'485.0'
p293
sg196
g197
sS'reference_priority'
p294
I0
sS'inertia'
p295
g14
sg90
g91
sg118
g119
sS'a_vrto_manual_lag'
p296
g14
sS'condenser_p'
p297
g14
sg228
S'0.02'
p298
sg15
S"1_5b '1 ' "
p299
sS'r2'
p300
S'0.03'
p301
sg189
Nsg116
g117
sS'coolant_condition'
p302
F0.0
sg62
I00
sg17
g257
sg120
g121
sS'x_direct_trans'
p303
g14
sS'generating_unit'
p304
Nsg224
S'0.0'
p305
sg50
g51
sg63
g64
sS'x_quad_subtrans'
p306
g14
sS'operating_mode'
p307
Vhttp://iec.ch/TC57/2009/CIM-schema-cim14#
p308
sg23
NsS'x_quad_trans'
p309
g14
sS'initial_reactive_capability_curve'
p310
Nsg67
g68
sS'a_vrto_manual_lead'
p311
g14
sbsV_81b5acee0dc011deb8c6000c295e15ce
p312
g0
(ccim14.iec61970.wires
ACLineSegment
p313
g2
Ntp314
Rp315
(dp316
g13
g14
sg40
Nsg185
g186
sg187
g188
sS'linear_conductor_type_assets'
p317
(lp318
sg189
Nsg113
g114
sg233
g234
sg71
g72
sg27
S'10T-AT-DE-000126'
p319
sg106
g107
sg194
g195
sS'g0ch'
p320
S'0.0001'
p321
sS'gch'
p322
S'0.0001'
p323
sg35
g36
sg47
g48
sg109
Nsg41
g42
sg50
g51
sg65
g66
sg21
g312
sg28
S'Westtirol-Silz 2 . L-XWE_SI24-AT-DE.'
p324
sg135
Nsg81
S'false'
p325
sg22
g14
sg84
g85
sS'b0ch'
p326
S'0.0003'
p327
sg214
V./data/10_Bus.xml#
p328
sg216
g217
sg57
g58
sg228
S'1.1406'
p329
sg222
S'7.48076'
p330
sg196
g197
sg90
g91
sg118
g119
sS'linear_conductor_assets'
p331
(lp332
sS'bch'
p333
S'0.0000420041'
p334
sg15
S"1_5 8 '1 ' "
p335
sg62
I00
sg116
g117
sg63
g64
sg141
NsS'conductor_type'
p336
Nsg17
g312
sg120
g121
sg224
S'1.0406'
p337
sg142
g143
sg146
g147
sg23
Nsg242
S'6.48076'
p338
sg26
Nsg67
g68
sbsV_60070010000000000000000000000099
p339
g0
(g151
g2
Ntp340
Rp341
(dp342
g13
g14
sg155
g156
sg157
g158
sg65
g159
sg160
V./data/10_Bus.xml#
p343
sg27
g14
sg161
g162
sg163
Nsg35
g165
sg166
g167
sg168
g169
sg21
g339
sg170
Nsg28
g14
sg171
g172
sg173
I00
sg26
Nsg15
S'6to7_1'
p344
sg17
g339
sg175
Nsg22
g14
sg23
Nsg176
NsbsV_81b5acb60dc011deb8c6000c295e15ce
p345
g0
(g258
g2
Ntp346
Rp347
(dp348
g13
g14
sg141
Nsg40
Nsg203
S'100.000'
p349
sg187
g188
sg142
g143
sg263
Nsg113
g114
sg233
g234
sg21
g345
sg71
g72
sg27
g14
sg185
g186
sg22
g14
sg106
g107
sg264
g265
sg266
g267
sg268
g14
sg35
g36
sg47
g48
sg269
S'50.000'
p350
sg271
g272
sg273
g14
sg168
V./data/10_Bus.xml#
p351
sg274
g14
sg109
Nsg275
g14
sg276
S'100.0'
p352
sg278
S'160.000'
p353
sg280
S'95.415'
p354
sg65
g66
sg256
Vhttp://iec.ch/TC57/2009/CIM-schema-cim14#
p355
sg283
g14
sg57
g58
sg26
Nsg242
S'121.0'
p356
sg41
g42
sg28
S'             '
p357
sg286
g287
sg135
Nsg81
S'false'
p358
sg146
g147
sg194
g195
sg289
g14
sg214
Nsg216
g217
sg290
g14
sg291
S'123.0'
p359
sg84
g85
sg222
S'122.0'
p360
sg196
g197
sg294
I0
sg295
g14
sg90
g91
sg118
g119
sg296
g14
sg297
g14
sg228
S'0.01'
p361
sg15
S"1_1 '1 ' "
p362
sg300
S'0.02'
p363
sg189
Nsg116
g117
sg302
F0.0
sg62
I00
sg17
g345
sg120
g121
sg303
g14
sg304
Nsg224
S'0.0'
p364
sg50
g51
sg63
g64
sg306
g14
sg307
Vhttp://iec.ch/TC57/2009/CIM-schema-cim14#
p365
sg23
Nsg309
g14
sg310
Nsg67
g68
sg311
g14
sbsV_81b5ad220dc011deb8c6000c295e15ce
p366
g0
(g9
g2
Ntp367
Rp368
(dp369
g13
g14
sg15
S'Ratings'
p370
sg17
g366
sg18
V./data/10_Bus.xml#
p371
sg20
Nsg21
g366
sg22
g14
sg23
Nsg24
g25
sg26
Nsg27
g14
sg28
S'Ratings for Branch 4_5_0_1 '
p372
sbsV_81b5ac8a0dc011deb8c6000c295e15ce
p373
g0
(ccim14.iec61970.core
Substation
p374
g2
Ntp375
Rp376
(dp377
g13
g14
sg40
Nsg41
g42
sg71
g72
sg27
g14
sg106
g107
sg163
(lp378
sg35
g36
sg47
g48
sS'bays'
p379
(lp380
sg109
Nsg50
g51
sg21
g373
sg28
g14
sS'substation_asset'
p381
Nsg135
Nsg84
g85
sg113
g114
sS'equipments'
p382
(lp383
sg57
g58
sg90
g91
sg15
S'NODE 6      '
p384
sS'connectivity_nodes'
p385
(lp386
sg116
g117
sg118
g119
sS'region'
p387
V./data/10_Bus.xml#
p388
sg17
g373
sg120
g121
sg142
g143
sS'voltage_levels'
p389
(lp390
sg22
g14
sg23
Nsg26
Nsg67
g68
sbsV_81b5acf80dc011deb8c6000c295e15ce
p391
g0
(g151
g2
Ntp392
Rp393
(dp394
g13
g14
sg155
g156
sg157
g158
sg65
g159
sg160
V./data/10_Bus.xml#
p395
sg27
g14
sg161
g162
sg163
V./data/10_Bus.xml#
p396
sg35
g165
sg166
g167
sg168
g169
sg21
g391
sg170
Nsg28
g14
sg171
g172
sg173
S'true'
p397
sg26
Nsg15
S'1_2_0_1 '
p398
sg17
g391
sg175
Nsg22
g14
sg23
Nsg176
NsbsV_81b5ac940dc011deb8c6000c295e15ce
p399
g0
(ccim14.iec61970.topology
TopologicalNode
p400
g2
Ntp401
Rp402
(dp403
g13
g14
sS'observability_flag'
p404
I00
sg41
NsS'phase_angle'
p405
g14
sS'voltage'
p406
g14
sS'load_carrying'
p407
I00
sg27
S'10T-AT-CH-00001X'
p408
sS'sv_injection'
p409
NsS'topological_island'
p410
V./data/10_Bus.xml#
p411
sg18
(lp412
sg21
g399
sS'control_area'
p413
V./data/10_Bus.xml#
p414
sS's_short_circuit'
p415
g14
sS'net_injection_q'
p416
g14
sS'net_injection_p'
p417
g14
sg28
S'           '
p418
sg22
g14
sS'sv_voltage'
p419
NsS'x0_per_x'
p420
F0.0
sS'angle_ref_topological_island'
p421
Nsg15
S'7_NODE 7'
p422
sS'energized'
p423
I00
sS'r0_per_r'
p424
F0.0
sg385
(lp425
sg17
g399
sS'x_per_r'
p426
F0.0
sS'connectivity_node_container'
p427
V./data/10_Bus.xml#
p428
sg23
Nsg26
NsbsV_81b5ac900dc011deb8c6000c295e15ce
p429
g0
(ccim14.iec61970.core
SubGeographicalRegion
p430
g2
Ntp431
Rp432
(dp433
g13
g14
sg15
S'XNODES      '
p434
sS'substations'
p435
(lp436
sg387
V./data/10_Bus.xml#
p437
sS'lines'
p438
(lp439
sg17
g429
sg21
g429
sg22
g14
sg23
Nsg26
Nsg27
g14
sg28
g14
sbsV_81b5ac9e0dc011deb8c6000c295e15ce
p440
g0
(ccim14.iec61970.core
BaseVoltage
p441
g2
Ntp442
Rp443
(dp444
g13
g14
sg15
g14
sg22
g14
sS'nominal_voltage'
p445
S'15.75'
p446
sg17
g440
sg21
g440
sS'is_dc'
p447
S'false'
p448
sg160
(lp449
sg23
NsS'voltage_level'
p450
(lp451
sg26
Nsg27
g14
sg28
g14
sbsV_81b5ac890dc011deb8c6000c295e15ce
p452
g0
(ccim14.iec61970.state_variables
SvVoltage
p453
g2
Ntp454
Rp455
(dp456
g163
V./data/10_Bus.xml#
p457
sg26
NsS'angle'
p458
S'0.0'
p459
sg17
g452
sS'v'
p460
S'220.0'
p461
sbsV_81b5ac710dc011deb8c6000c295e15ce
p462
g0
(ccim14.iec61970.topology
TopologicalIsland
p463
g2
Ntp464
Rp465
(dp466
g13
g14
sg15
S'System'
p467
sS'angle_ref_topological_node'
p468
V./data/10_Bus.xml#
p469
sg17
g462
sg21
g462
sg22
g14
sg23
Nsg26
Nsg27
g14
sS'topological_nodes'
p470
(lp471
sg28
S'Main system topological island'
p472
sbsV_81b5ad2f0dc011deb8c6000c295e15ce
p473
g0
(ccim14.iec61970.operational_limits
CurrentLimit
p474
g2
Ntp475
Rp476
(dp477
g13
g14
sg15
S'ShortTerm'
p478
sg27
g14
sg28
S'Ratings for Branch 4_5_0_1  - ShortTerm'
p479
sg17
g473
sg251
S'866.025404'
p480
sg65
V./data/10_Bus.xml#
p481
sg22
g14
sg23
Nsg254
V./data/10_Bus.xml#
p482
sg26
Nsg256
g14
sg21
g473
sbsV_81b5ad390dc011deb8c6000c295e15ce
p483
g0
(ccim14.iec61970.wires
RegulatingControl
p484
g2
Ntp485
Rp486
(dp487
g13
g14
sg40
Nsg41
g42
sg21
g483
sS'regulating_cond_eq'
p488
(lp489
sg71
g72
sg27
g14
sg106
g107
sS'tap_changer'
p490
(lp491
sS'target_value'
p492
S'111.65'
p493
sg35
g36
sg47
g48
sg18
V./data/10_Bus.xml#
p494
sg109
Nsg50
g51
sg142
g143
sg28
g14
sg135
Nsg84
g85
sg113
g114
sS'regulation_schedule'
p495
Nsg57
g58
sg90
g91
sg15
S'1'
p496
sg116
g117
sg118
g119
sS'target_range'
p497
S'3.85'
p498
sg17
g483
sg120
g121
sS'discrete'
p499
S'true'
p500
sS'mode'
p501
Vhttp://iec.ch/TC57/2009/CIM-schema-cim14#
p502
sg22
g14
sg23
Nsg26
Nsg67
g68
sbsV_81b5ac9b0dc011deb8c6000c295e15ce
p503
g0
(g374
g2
Ntp504
Rp505
(dp506
g13
g14
sg40
Nsg41
g42
sg71
g72
sg27
g14
sg106
g107
sg163
g378
sg35
g36
sg47
g48
sg379
g380
sg109
Nsg50
g51
sg21
g503
sg28
g14
sg381
Nsg135
Nsg84
g85
sg113
g114
sg382
g383
sg57
g58
sg90
g91
sg15
S'NODE 9      '
p507
sg385
g386
sg116
g117
sg118
g119
sg387
V./data/10_Bus.xml#
p508
sg17
g503
sg120
g121
sg142
g143
sg389
g390
sg22
g14
sg23
Nsg26
Nsg67
g68
sbsV_81b5ad210dc011deb8c6000c295e15ce
p509
g0
(ccim14.iec61970.wires
PowerTransformer
p510
g2
Ntp511
Rp512
(dp513
g13
g14
sg40
Nsg41
g42
sg65
g66
sg71
g72
sg27
g14
sg106
g107
sg194
g195
sg35
g36
sg47
g48
sS'bmag_sat'
p514
g14
sg109
Nsg50
g51
sg21
g509
sg28
S'             '
p515
sg135
Nsg81
S'false'
p516
sg22
g14
sg84
g85
sS'mag_sat_flux'
p517
g14
sg113
g114
sS'mag_base_u'
p518
g14
sS'flowgates'
p519
(lp520
sS'transformer_windings'
p521
(lp522
sg57
g58
sg90
g91
sg118
g119
sg15
S"1_4 5 0 '1 ' "
p523
sg62
I00
sg116
g117
sg63
g64
sg141
Nsg17
g509
sg120
g121
sS'heat_exchanger'
p524
Nsg142
g143
sg146
g147
sg23
Nsg26
Nsg67
g68
sbsV_81b5acda0dc011deb8c6000c295e15ce
p525
g0
(g151
g2
Ntp526
Rp527
(dp528
g13
g14
sg155
g156
sg157
g158
sg65
g159
sg160
V./data/10_Bus.xml#
p529
sg27
g14
sg161
g162
sg163
V./data/10_Bus.xml#
p530
sg35
g165
sg166
g167
sg168
g169
sg21
g525
sg170
Nsg28
g14
sg171
g172
sg173
S'true'
p531
sg26
Nsg15
S'1 '
p532
sg17
g525
sg175
Nsg22
g14
sg23
Nsg176
NsbsV_81b5acde0dc011deb8c6000c295e15ce
p533
g0
(g474
g2
Ntp534
Rp535
(dp536
g13
g14
sg15
S'ShortTerm'
p537
sg27
g14
sg28
S'Ratings for Branch 3_8_1  - ShortTerm'
p538
sg17
g533
sg251
S'1705.807614'
p539
sg65
V./data/10_Bus.xml#
p540
sg22
g14
sg23
Nsg254
V./data/10_Bus.xml#
p541
sg26
Nsg256
g14
sg21
g533
sbsV_81b5ad240dc011deb8c6000c295e15ce
p542
g0
(g151
g2
Ntp543
Rp544
(dp545
g13
g14
sg155
g156
sg157
g158
sg65
g159
sg160
V./data/10_Bus.xml#
p546
sg27
g14
sg161
g162
sg163
V./data/10_Bus.xml#
p547
sg35
g165
sg166
g167
sg168
g169
sg21
g542
sg170
Nsg28
g14
sg171
g172
sg173
S'true'
p548
sg26
Nsg15
S'4_5_0_1 '
p549
sg17
g542
sg175
Nsg22
g14
sg23
Nsg176
NsbsV_81b5ad100dc011deb8c6000c295e15ce
p550
g0
(g178
g2
Ntp551
Rp552
(dp553
g13
g14
sg182
g14
sg118
g119
sg183
g184
sg40
Nsg185
g186
sg187
g188
sg142
g143
sg189
Nsg190
S'0'
p554
sg21
g550
sg71
g72
sg27
g14
sg192
Vhttp://iec.ch/TC57/2009/CIM-schema-cim14#
p555
sg194
g195
sg196
g197
sg198
I00
sg199
Vhttp://iec.ch/TC57/2009/CIM-schema-cim14#
p556
sg35
g36
sg47
g48
sg201
S'620.00'
p557
sg203
S'650.00'
p558
sg109
Nsg205
S'220.0'
p559
sg41
g42
sg50
g51
sg81
I00
sg65
g66
sg57
g58
sg207
Nsg28
S'1_3_0_1  To Winding'
p560
sg209
g554
sg135
Nsg211
g212
sg22
g14
sg84
g85
sg213
Nsg113
g114
sg214
V./data/10_Bus.xml#
p561
sg216
g217
sg218
g219
sg220
S'630.00'
p562
sg222
g554
sg224
S'0.0'
p563
sg90
g91
sg106
g107
sg226
S'0.0'
p564
sg228
g554
sg15
S'1_3_0_1 '
p565
sg231
S'0.0'
p566
sg62
I00
sg116
g117
sg63
g64
sg141
Nsg17
g550
sg233
g234
sg120
g121
sg235
g236
sg237
g554
sg239
Nsg240
g554
sg146
g147
sg23
Nsg242
S'0.0'
p567
sg26
Nsg67
g68
sbsV_10000000000000000000000000000088
p568
g0
(g9
g2
Ntp569
Rp570
(dp571
g13
g14
sg15
S'VoltageLimit'
p572
sg17
g568
sg18
V./data/10_Bus.xml#
p573
sg20
Nsg21
g568
sg22
g14
sg23
Nsg24
g25
sg26
Nsg27
g14
sg28
S'Voltage limits for EnergyConsumer 1'
p574
sbsV_81b5acc70dc011deb8c6000c295e15ce
p575
g0
(g151
g2
Ntp576
Rp577
(dp578
g13
g14
sg155
g156
sg157
g158
sg65
g159
sg160
V./data/10_Bus.xml#
p579
sg27
g14
sg161
g162
sg163
V./data/10_Bus.xml#
p580
sg35
g165
sg166
g167
sg168
g169
sg21
g575
sg170
Nsg28
g14
sg171
g172
sg173
S'true'
p581
sg26
Nsg15
S'1 '
p582
sg17
g575
sg175
Nsg22
g14
sg23
Nsg176
NsbsV_81b5ac8b0dc011deb8c6000c295e15ce
p583
g0
(g400
g2
Ntp584
Rp585
(dp586
g13
g14
sg404
I00
sg41
Nsg405
g14
sg406
g14
sg407
I00
sg27
S'10T-AL-RS-000019'
p587
sg409
Nsg410
V./data/10_Bus.xml#
p588
sg18
g412
sg21
g583
sg413
V./data/10_Bus.xml#
p589
sg415
g14
sg416
g14
sg417
g14
sg28
S'           '
p590
sg22
g14
sg419
Nsg420
F0.0
sg421
Nsg15
S'6_NODE 6'
p591
sg423
I00
sg424
F0.0
sg385
g425
sg17
g583
sg426
F0.0
sg427
V./data/10_Bus.xml#
p592
sg23
Nsg26
NsbsV_81b5acf90dc011deb8c6000c295e15ce
p593
g0
(g474
g2
Ntp594
Rp595
(dp596
g13
g14
sg15
S'Normal'
p597
sg27
g14
sg28
S'Ratings for Branch 1_2_0_1  - Normal'
p598
sg17
g593
sg251
S'3411.615227'
p599
sg65
V./data/10_Bus.xml#
p600
sg22
g14
sg23
Nsg254
V./data/10_Bus.xml#
p601
sg26
Nsg256
g14
sg21
g593
sbsV_81b5ace10dc011deb8c6000c295e15ce
p602
g0
(g151
g2
Ntp603
Rp604
(dp605
g13
g14
sg155
g156
sg157
g158
sg65
g159
sg160
V./data/10_Bus.xml#
p606
sg27
g14
sg161
g162
sg163
V./data/10_Bus.xml#
p607
sg35
g165
sg166
g167
sg168
g169
sg21
g602
sg170
Nsg28
g14
sg171
g172
sg173
S'true'
p608
sg26
Nsg15
S'1 '
p609
sg17
g602
sg175
Nsg22
g14
sg23
Nsg176
NsbsV_81b5ad2e0dc011deb8c6000c295e15ce
p610
g0
(g474
g2
Ntp611
Rp612
(dp613
g13
g14
sg15
S'Normal'
p614
sg27
g14
sg28
S'Ratings for Branch 4_5_0_1  - Normal'
p615
sg17
g610
sg251
S'839.78221'
p616
sg65
V./data/10_Bus.xml#
p617
sg22
g14
sg23
Nsg254
V./data/10_Bus.xml#
p618
sg26
Nsg256
g14
sg21
g610
sbsV_81b5ac830dc011deb8c6000c295e15ce
p619
g0
(g430
g2
Ntp620
Rp621
(dp622
g13
g14
sg15
S'AREA 2      '
p623
sg435
g436
sg387
V./data/10_Bus.xml#
p624
sg438
g439
sg17
g619
sg21
g619
sg22
g14
sg23
Nsg26
Nsg27
g14
sg28
g14
sbsV_81b5ac960dc011deb8c6000c295e15ce
p625
g0
(g453
g2
Ntp626
Rp627
(dp628
g163
V./data/10_Bus.xml#
p629
sg26
Nsg458
S'-4.4829'
p630
sg17
g625
sg460
S'366.956'
p631
sbsV_81b5ac740dc011deb8c6000c295e15ce
p632
g0
(g400
g2
Ntp633
Rp634
(dp635
g13
g14
sg404
I00
sg41
Nsg405
g14
sg406
g14
sg407
I00
sg27
g14
sg409
Nsg410
V./data/10_Bus.xml#
p636
sg18
g412
sg21
g632
sg413
V./data/10_Bus.xml#
p637
sg415
g14
sg416
g14
sg417
g14
sg28
S'new configuration          '
p638
sg22
g14
sg419
Nsg420
F0.0
sg421
Nsg15
S'2_NODE 2'
p639
sg423
I00
sg424
F0.0
sg385
g425
sg17
g632
sg426
F0.0
sg427
V./data/10_Bus.xml#
p640
sg23
Nsg26
NsbsV_81b5acfb0dc011deb8c6000c295e15ce
p641
g0
(g474
g2
Ntp642
Rp643
(dp644
g13
g14
sg15
S'Emergency'
p645
sg27
g14
sg28
S'Ratings for Branch 1_2_0_1  - Emergency'
p646
sg17
g641
sg251
S'3254.156063'
p647
sg65
V./data/10_Bus.xml#
p648
sg22
g14
sg23
Nsg254
V./data/10_Bus.xml#
p649
sg26
Nsg256
g14
sg21
g641
sbsV_81b5acb00dc011deb8c6000c295e15ce
p650
g0
(ccim14.iec61970.state_variables
SvPowerFlow
p651
g2
Ntp652
Rp653
(dp654
S'q'
p655
S'10.0'
p656
sS'p'
p657
S'10.0'
p658
sg26
Nsg17
V_81b5acb00dc011deb8c6000c295e15ce
p659
sg18
V./data/10_Bus.xml#
p660
sbsV_81b5ad270dc011deb8c6000c295e15ce
p661
g0
(g474
g2
Ntp662
Rp663
(dp664
g13
g14
sg15
S'Emergency'
p665
sg27
g14
sg28
S'Ratings for Branch 4_5_0_1  - Emergency'
p666
sg17
g661
sg251
S'490.747729'
p667
sg65
V./data/10_Bus.xml#
p668
sg22
g14
sg23
Nsg254
V./data/10_Bus.xml#
p669
sg26
Nsg256
g14
sg21
g661
sbsV_81b5aca30dc011deb8c6000c295e15ce
p670
g0
(g441
g2
Ntp671
Rp672
(dp673
g13
g14
sg15
g14
sg22
g14
sg445
S'21.0'
p674
sg17
g670
sg21
g670
sg447
S'false'
p675
sg160
g449
sg23
Nsg450
g451
sg26
Nsg27
g14
sg28
g14
sbsV_81b5ad310dc011deb8c6000c295e15ce
p676
g0
(g510
g2
Ntp677
Rp678
(dp679
g13
g14
sg40
Nsg41
g42
sg65
g66
sg71
g72
sg27
g14
sg106
g107
sg194
g195
sg35
g36
sg47
g48
sg514
g14
sg109
Nsg50
g51
sg21
g676
sg28
S'            '
p680
sg135
Nsg81
S'false'
p681
sg22
g14
sg84
g85
sg517
g14
sg113
g114
sg518
g14
sg519
g520
sg521
g522
sg57
g58
sg90
g91
sg118
g119
sg15
S"1_5 9 0 '1 ' "
p682
sg62
I00
sg116
g117
sg63
g64
sg141
Nsg17
g676
sg120
g121
sg524
Nsg142
g143
sg146
g147
sg23
Nsg26
Nsg67
g68
sbsV_81b5ac7c0dc011deb8c6000c295e15ce
p683
g0
(g453
g2
Ntp684
Rp685
(dp686
g163
V./data/10_Bus.xml#
p687
sg26
Nsg458
S'-10.4498'
p688
sg17
g683
sg460
S'203.4274'
p689
sbsV_81b5ac7d0dc011deb8c6000c295e15ce
p690
g0
(g374
g2
Ntp691
Rp692
(dp693
g13
g14
sg40
Nsg41
g42
sg71
g72
sg27
g14
sg106
g107
sg163
g378
sg35
g36
sg47
g48
sg379
g380
sg109
Nsg50
g51
sg21
g690
sg28
g14
sg381
Nsg135
Nsg84
g85
sg113
g114
sg382
g383
sg57
g58
sg90
g91
sg15
S'NODE 4      '
p694
sg385
g386
sg116
g117
sg118
g119
sg387
V./data/10_Bus.xml#
p695
sg17
g690
sg120
g121
sg142
g143
sg389
g390
sg22
g14
sg23
Nsg26
Nsg67
g68
sbsV_81b5acbb0dc011deb8c6000c295e15ce
p696
g0
(g258
g2
Ntp697
Rp698
(dp699
g13
g14
sg141
Nsg40
Nsg203
S'100.000'
p700
sg187
g188
sg142
g143
sg263
Nsg113
g114
sg233
g234
sg21
g696
sg71
g72
sg27
g14
sg185
g186
sg22
g14
sg106
g107
sg264
g265
sg266
g267
sg268
g14
sg35
g36
sg47
g48
sg269
S'0.000'
p701
sg271
g272
sg273
g14
sg168
V./data/10_Bus.xml#
p702
sg274
g14
sg109
Nsg275
g14
sg276
S'100.0'
p703
sg278
S'600.000'
p704
sg280
S'199.301'
p705
sg65
g66
sg256
Vhttp://iec.ch/TC57/2009/CIM-schema-cim14#
p706
sg283
g14
sg57
g58
sg26
Nsg242
S'484.0'
p707
sg41
g42
sg28
S'           '
p708
sg286
g287
sg135
Nsg81
S'false'
p709
sg146
g147
sg194
g195
sg289
g14
sg214
Nsg216
g217
sg290
g14
sg291
S'486.0'
p710
sg84
g85
sg222
S'485.0'
p711
sg196
g197
sg294
I0
sg295
g14
sg90
g91
sg118
g119
sg296
g14
sg297
g14
sg228
S'0.02'
p712
sg15
S"1_5 '1 ' "
p713
sg300
S'0.03'
p714
sg189
Nsg116
g117
sg302
F0.0
sg62
I00
sg17
g696
sg120
g121
sg303
g14
sg304
Nsg224
S'0.0'
p715
sg50
g51
sg63
g64
sg306
g14
sg307
Vhttp://iec.ch/TC57/2009/CIM-schema-cim14#
p716
sg23
Nsg309
g14
sg310
Nsg67
g68
sg311
g14
sbsV_81b5acf50dc011deb8c6000c295e15ce
p717
g0
(g510
g2
Ntp718
Rp719
(dp720
g13
g14
sg40
Nsg41
g42
sg65
g66
sg71
g72
sg27
g14
sg106
g107
sg194
g195
sg35
g36
sg47
g48
sg514
g14
sg109
Nsg50
g51
sg21
g717
sg28
S'This transformer do not participate in N-1'
p721
sg135
Nsg81
S'true'
p722
sg22
g14
sg84
g85
sg517
g14
sg113
g114
sg518
g14
sg519
g520
sg521
g522
sg57
g58
sg90
g91
sg118
g119
sg15
S"1_1 2 0 '1 ' "
p723
sg62
I00
sg116
g117
sg63
g64
sg141
Nsg17
g717
sg120
g121
sg524
Nsg142
g143
sg146
g147
sg23
Nsg26
Nsg67
g68
sbsV_81b5ad420dc011deb8c6000c295e15ce
p724
g0
(ccim14.iec61970.state_variables
SvShuntCompensatorSections
p725
g2
Ntp726
Rp727
(dp728
g26
NsS'continuous_sections'
p729
g554
sS'sections'
p730
I0
sg17
g724
sS'shunt_compensator'
p731
V./data/10_Bus.xml#
p732
sbsV_81b5acf10dc011deb8c6000c295e15ce
p733
g0
(g9
g2
Ntp734
Rp735
(dp736
g13
g14
sg15
S'Ratings'
p737
sg17
g733
sg18
V./data/10_Bus.xml#
p738
sg20
Nsg21
g733
sg22
g14
sg23
Nsg24
g25
sg26
Nsg27
g14
sg28
S'Ratings for Branch 5_8_1 '
p739
sbsV_81b5ace90dc011deb8c6000c295e15ce
p740
g0
(g151
g2
Ntp741
Rp742
(dp743
g13
g14
sg155
g156
sg157
g158
sg65
g159
sg160
V./data/10_Bus.xml#
p744
sg27
g14
sg161
g162
sg163
V./data/10_Bus.xml#
p745
sg35
g165
sg166
g167
sg168
g169
sg21
g740
sg170
Nsg28
g14
sg171
g172
sg173
S'true'
p746
sg26
Nsg15
S'1 '
p747
sg17
g740
sg175
Nsg22
g14
sg23
Nsg176
NsbsV_81b5ad2d0dc011deb8c6000c295e15ce
p748
g0
(g151
g2
Ntp749
Rp750
(dp751
g13
g14
sg155
g156
sg157
g158
sg65
g159
sg160
V./data/10_Bus.xml#
p752
sg27
g14
sg161
g162
sg163
V./data/10_Bus.xml#
p753
sg35
g165
sg166
g167
sg168
g169
sg21
g748
sg170
Nsg28
g14
sg171
g172
sg173
S'true'
p754
sg26
Nsg15
S'4_5_0_1 '
p755
sg17
g748
sg175
Nsg22
g14
sg23
Nsg176
NsbsV_81b5ad440dc011deb8c6000c295e15ce
p756
g0
(g151
g2
Ntp757
Rp758
(dp759
g13
g14
sg155
g156
sg157
g158
sg65
g159
sg160
V./data/10_Bus.xml#
p760
sg27
g14
sg161
g162
sg163
V./data/10_Bus.xml#
p761
sg35
g165
sg166
g167
sg168
g169
sg21
g756
sg170
Nsg28
g14
sg171
g172
sg173
S'true'
p762
sg26
Nsg15
S'NODE 1       4'
p763
sg17
g756
sg175
Nsg22
g14
sg23
Nsg176
NsbsV_5020000000000000000000000000077
p764
g0
(ccim14.iec61970.control_area
ControlAreaGeneratingUnit
p765
g2
Ntp766
Rp767
(dp768
g304
V./data/10_Bus.xml#
p769
sg26
NsS'alt_generating_unit_meas'
p770
(lp771
sg413
V./data/10_Bus.xml#
p772
sg17
g764
sbsV_81b5aceb0dc011deb8c6000c295e15ce
p773
g0
(g474
g2
Ntp774
Rp775
(dp776
g13
g14
sg15
S'Normal'
p777
sg27
g14
sg28
S'Ratings for Branch 4_7_1  - Normal'
p778
sg17
g773
sg251
S'1299.038106'
p779
sg65
V./data/10_Bus.xml#
p780
sg22
g14
sg23
Nsg254
V./data/10_Bus.xml#
p781
sg26
Nsg256
g14
sg21
g773
sbsV_81b5ad0a0dc011deb8c6000c295e15ce
p782
g0
(g474
g2
Ntp783
Rp784
(dp785
g13
g14
sg15
S'Normal'
p786
sg27
g14
sg28
S'Ratings for Branch 1_3_0_1  - Normal'
p787
sg17
g782
sg251
S'3411.615227'
p788
sg65
V./data/10_Bus.xml#
p789
sg22
g14
sg23
Nsg254
V./data/10_Bus.xml#
p790
sg26
Nsg256
g14
sg21
g782
sbsV_81b5ad120dc011deb8c6000c295e15ce
p791
g0
(g474
g2
Ntp792
Rp793
(dp794
g13
g14
sg15
S'Normal'
p795
sg27
g14
sg28
S'Ratings for Branch 1_3_0_1  - Normal'
p796
sg17
g791
sg251
S'1705.807614'
p797
sg65
V./data/10_Bus.xml#
p798
sg22
g14
sg23
Nsg254
V./data/10_Bus.xml#
p799
sg26
Nsg256
g14
sg21
g791
sbsV_81b5ad370dc011deb8c6000c295e15ce
p800
g0
(g178
g2
Ntp801
Rp802
(dp803
g13
g14
sg182
g14
sg118
g119
sg183
g184
sg40
Nsg185
g186
sg187
g188
sg142
g143
sg189
Nsg190
g554
sg21
g800
sg71
g72
sg27
g14
sg192
Vhttp://iec.ch/TC57/2009/CIM-schema-cim14#
p804
sg194
g195
sg196
g197
sg198
I00
sg199
Vhttp://iec.ch/TC57/2009/CIM-schema-cim14#
p805
sg35
g36
sg47
g48
sg201
S'0.00'
p806
sg203
S'250.00'
p807
sg109
Nsg205
S'15.75'
p808
sg41
g42
sg50
g51
sg81
I00
sg65
g66
sg57
g58
sg207
Nsg28
S'5_9_0_1  To Winding'
p809
sg209
g554
sg135
Nsg211
g212
sg22
g14
sg84
g85
sg213
Nsg113
g114
sg214
V./data/10_Bus.xml#
p810
sg216
g217
sg218
g219
sg220
S'0.00'
p811
sg222
g554
sg224
S'0.0'
p812
sg90
g91
sg106
g107
sg226
S'0.0'
p813
sg228
g554
sg15
S'5_9_0_1 '
p814
sg231
S'0.0'
p815
sg62
I00
sg116
g117
sg63
g64
sg141
Nsg17
g800
sg233
g234
sg120
g121
sg235
g236
sg237
g554
sg239
Nsg240
g554
sg146
g147
sg23
Nsg242
S'0.0'
p816
sg26
Nsg67
g68
sbsV_81b5ac970dc011deb8c6000c295e15ce
p817
g0
(g374
g2
Ntp818
Rp819
(dp820
g13
g14
sg40
Nsg41
g42
sg71
g72
sg27
g14
sg106
g107
sg163
g378
sg35
g36
sg47
g48
sg379
g380
sg109
Nsg50
g51
sg21
g817
sg28
g14
sg381
Nsg135
Nsg84
g85
sg113
g114
sg382
g383
sg57
g58
sg90
g91
sg15
S'NODE 8      '
p821
sg385
g386
sg116
g117
sg118
g119
sg387
V./data/10_Bus.xml#
p822
sg17
g817
sg120
g121
sg142
g143
sg389
g390
sg22
g14
sg23
Nsg26
Nsg67
g68
sbsV_81b5ad160dc011deb8c6000c295e15ce
p823
g0
(g510
g2
Ntp824
Rp825
(dp826
g13
g14
sg40
Nsg41
g42
sg65
g66
sg71
g72
sg27
g14
sg106
g107
sg194
g195
sg35
g36
sg47
g48
sg514
g14
sg109
Nsg50
g51
sg21
g823
sg28
S'              '
p827
sg135
Nsg81
S'false'
p828
sg22
g14
sg84
g85
sg517
g14
sg113
g114
sg518
g14
sg519
g520
sg521
g522
sg57
g58
sg90
g91
sg118
g119
sg15
S"1_3 2 10 '1 ' "
p829
sg62
I00
sg116
g117
sg63
g64
sg141
Nsg17
g823
sg120
g121
sg524
Nsg142
g143
sg146
g147
sg23
Nsg26
Nsg67
g68
sbsV_81b5aca00dc011deb8c6000c295e15ce
p830
g0
(g374
g2
Ntp831
Rp832
(dp833
g13
g14
sg40
Nsg41
g42
sg71
g72
sg27
g14
sg106
g107
sg163
g378
sg35
g36
sg47
g48
sg379
g380
sg109
Nsg50
g51
sg21
g830
sg28
g14
sg381
Nsg135
Nsg84
g85
sg113
g114
sg382
g383
sg57
g58
sg90
g91
sg15
S'NODE 10     '
p834
sg385
g386
sg116
g117
sg118
g119
sg387
V./data/10_Bus.xml#
p835
sg17
g830
sg120
g121
sg142
g143
sg389
g390
sg22
g14
sg23
Nsg26
Nsg67
g68
sbsV_81b5acae0dc011deb8c6000c295e15ce
p836
g0
(ccim14.iec61970.load_model
LoadResponseCharacteristic
p837
g2
Ntp838
Rp839
(dp840
g13
g14
sS'p_voltage_exponent'
p841
F0.0
sS'p_frequency_exponent'
p842
F0.0
sS'q_constant_current'
p843
S'0.000'
p844
sg15
S'1 '
p845
sS'q_frequency_exponent'
p846
F0.0
sS'p_constant_impedance'
p847
S'0.000'
p848
sg22
g14
sS'p_constant_power'
p849
S'300.000'
p850
sS'q_voltage_exponent'
p851
F0.0
sg17
g836
sS'energy_consumer'
p852
(lp853
sg26
Nsg21
g836
sS'p_constant_current'
p854
S'0.000'
p855
sg23
NsS'exponent_model'
p856
S'false'
p857
sS'q_constant_power'
p858
S'290.000'
p859
sg27
g14
sS'q_constant_impedance'
p860
S'0.000'
p861
sg28
g14
sbsV_81b5ad0c0dc011deb8c6000c295e15ce
p862
g0
(g474
g2
Ntp863
Rp864
(dp865
g13
g14
sg15
S'Emergency'
p866
sg27
g14
sg28
S'Ratings for Branch 1_3_0_1  - Emergency'
p867
sg17
g862
sg251
S'3254.156063'
p868
sg65
V./data/10_Bus.xml#
p869
sg22
g14
sg23
Nsg254
V./data/10_Bus.xml#
p870
sg26
Nsg256
g14
sg21
g862
sbsV_81b5ac6e0dc011deb8c6000c295e15ce
p871
g0
(g441
g2
Ntp872
Rp873
(dp874
g13
g14
sg15
g14
sg22
g14
sg445
S'110.0'
p875
sg17
g871
sg21
g871
sg447
S'false'
p876
sg160
g449
sg23
Nsg450
g451
sg26
Nsg27
g14
sg28
g14
sbsV_81b5ad450dc011deb8c6000c295e15ce
p877
g0
(g725
g2
Ntp878
Rp879
(dp880
g26
Nsg729
g554
sg730
I0
sg17
g877
sg731
V./data/10_Bus.xml#
p881
sbsV_81b5ad470dc011deb8c6000c295e15ce
p882
g0
(ccim14.iec61970.wires
ShuntCompensator
p883
g2
Ntp884
Rp885
(dp886
g13
g14
sg141
Nsg118
g119
sS'reactive_per_section'
p887
g14
sg40
Nsg185
g186
sg187
g188
sg189
Nsg113
g114
sg233
g234
sg21
g882
sg71
g72
sg27
g14
sg106
g107
sg120
g121
sg194
g195
sg268
g14
sg35
g36
sg47
g48
sg271
g272
sg168
V./data/10_Bus.xml#
p888
sg274
g14
sg109
NsS'switch_on_count'
p889
I0
sg50
g51
sg142
g143
sg41
g42
sg28
S'SWSH0'
p890
sg135
Nsg81
S'false'
p891
sg22
g14
sS'sv_shunt_compensator_sections'
p892
Nsg84
g85
sg214
V./data/10_Bus.xml#
p893
sS'voltage_sensitivity'
p894
g14
sg216
g217
sg57
g58
sg196
g197
sS'y_per_section'
p895
g14
sg90
g91
sS'normal_sections'
p896
I0
sS'nom_u'
p897
g14
sS'b0_per_section'
p898
S'0.003'
p899
sg15
S'NODE 2       1'
p900
sS'switch_on_date'
p901
g14
sg116
g117
sg63
g64
sg62
I00
sg17
g882
sS'a_vrdelay'
p902
g496
sS'maximum_sections'
p903
g496
sg146
g147
sg23
Nsg65
g66
sg26
NsS'g0_per_section'
p904
S'0.004'
p905
sg67
g68
sS'nom_q'
p906
g14
sbsV_81b5ac780dc011deb8c6000c295e15ce
p907
g0
(g374
g2
Ntp908
Rp909
(dp910
g13
g14
sg40
Nsg41
g42
sg71
g72
sg27
g14
sg106
g107
sg163
g378
sg35
g36
sg47
g48
sg379
g380
sg109
Nsg50
g51
sg21
g907
sg28
g14
sg381
Nsg135
Nsg84
g85
sg113
g114
sg382
g383
sg57
g58
sg90
g91
sg15
S'NODE 3      '
p911
sg385
g386
sg116
g117
sg118
g119
sg387
V./data/10_Bus.xml#
p912
sg17
g907
sg120
g121
sg142
g143
sg389
g390
sg22
g14
sg23
Nsg26
Nsg67
g68
sbsV_81b5ad400dc011deb8c6000c295e15ce
p913
g0
(g883
g2
Ntp914
Rp915
(dp916
g13
g14
sg141
Nsg118
g119
sg887
g14
sg40
Nsg185
g186
sg187
g188
sg189
Nsg113
g114
sg233
g234
sg21
g913
sg71
g72
sg27
g14
sg106
g107
sg120
g121
sg194
g195
sg268
g14
sg35
g36
sg47
g48
sg271
g272
sg168
V./data/10_Bus.xml#
p917
sg274
g14
sg109
Nsg889
I0
sg50
g51
sg142
g143
sg41
g42
sg28
S'SWSH2'
p918
sg135
Nsg81
S'false'
p919
sg22
g14
sg892
Nsg84
g85
sg214
V./data/10_Bus.xml#
p920
sg894
g14
sg216
g217
sg57
g58
sg196
g197
sg895
g14
sg90
g91
sg896
I0
sg897
g14
sg898
S'0.004'
p921
sg15
S'NODE 1       3'
p922
sg901
g14
sg116
g117
sg63
g64
sg62
I00
sg17
g913
sg902
S'3'
p923
sg903
g496
sg146
g147
sg23
Nsg65
g66
sg26
Nsg904
S'0.003'
p924
sg67
g68
sg906
g14
sbsV_81b5ac730dc011deb8c6000c295e15ce
p925
g0
(g374
g2
Ntp926
Rp927
(dp928
g13
g14
sg40
Nsg41
g42
sg71
g72
sg27
g14
sg106
g107
sg163
g378
sg35
g36
sg47
g48
sg379
g380
sg109
Nsg50
g51
sg21
g925
sg28
g14
sg381
Nsg135
Nsg84
g85
sg113
g114
sg382
g383
sg57
g58
sg90
g91
sg15
S'NODE 2      '
p929
sg385
g386
sg116
g117
sg118
g119
sg387
V./data/10_Bus.xml#
p930
sg17
g925
sg120
g121
sg142
g143
sg389
g390
sg22
g14
sg23
Nsg26
Nsg67
g68
sbsV_81b5ac670dc011deb8c6000c295e15ce
p931
g0
(g400
g2
Ntp932
Rp933
(dp934
g13
g14
sg404
I00
sg41
Nsg405
g14
sg406
g14
sg407
I00
sg27
g14
sg409
Nsg410
V./data/10_Bus.xml#
p935
sg18
g412
sg21
g931
sg413
V./data/10_Bus.xml#
p936
sg415
S'200'
p937
sg416
g14
sg417
g14
sg28
S'           '
p938
sg22
g14
sg419
Nsg420
g229
sg421
Nsg15
S'1_NODE 1'
p939
sg423
I00
sg424
g496
sg385
g425
sg17
g931
sg426
g923
sg427
V./data/10_Bus.xml#
p940
sg23
Nsg26
NsbsV_81b5ac690dc011deb8c6000c295e15ce
p941
g0
(ccim14.iec61970.control_area
ControlArea
p942
g2
Ntp943
Rp944
(dp945
g13
g14
sS'energy_area'
p946
Nsg40
Nsg41
g42
sg71
g72
sg27
g14
sg161
(lp947
sg106
g107
sg163
(lp948
sg35
g36
sg47
g48
sg73
(lp949
sS'bus_name_marker'
p950
(lp951
sg109
Nsg50
g51
sS'p_tolerance'
p952
S'10.000'
p953
sg256
S'forecast'
p954
sg21
g941
sg28
S'AREA 1      '
p955
sg135
Nsg84
g85
sg113
g114
sg57
g58
sg90
g91
sg15
g496
sg116
g117
sg118
g119
sg17
g941
sg120
g121
sg142
g143
sg22
g14
sg23
NsS'net_interchange'
p956
S'-100.000'
p957
sg26
Nsg67
g68
sbsV_81b5acdf0dc011deb8c6000c295e15ce
p958
g0
(g474
g2
Ntp959
Rp960
(dp961
g13
g14
sg15
S'Emergency'
p962
sg27
g14
sg28
S'Ratings for Branch 3_8_1  - Emergency'
p963
sg17
g958
sg251
S'1443.375673'
p964
sg65
V./data/10_Bus.xml#
p965
sg22
g14
sg23
Nsg254
V./data/10_Bus.xml#
p966
sg26
Nsg256
g14
sg21
g958
sbsV_10100000000000000000000000000022
p967
g0
(g151
g2
Ntp968
Rp969
(dp970
g13
g14
sg155
g156
sg157
g158
sg65
g159
sg160
V./data/10_Bus.xml#
p971
sg27
g14
sg161
g162
sg163
V./data/10_Bus.xml#
p972
sg35
g165
sg166
g167
sg168
g169
sg21
g967
sg170
Nsg28
g14
sg171
g172
sg173
S'true'
p973
sg26
Nsg15
S'1 '
p974
sg17
g967
sg175
Nsg22
g14
sg23
Nsg176
NsbsV_81b5acb40dc011deb8c6000c295e15ce
p975
g0
(g651
g2
Ntp976
Rp977
(dp978
g655
S'318.0'
p979
sg657
S'483.0'
p980
sg26
Nsg17
g975
sg18
V./data/10_Bus.xml#
p981
sbsV_81b5ac6d0dc011deb8c6000c295e15ce
p982
g0
(ccim14.iec61970.core
GeographicalRegion
p983
g2
Ntp984
Rp985
(dp986
g13
g14
sg15
S'AREA 1      '
p987
sg17
g982
sS'regions'
p988
(lp989
sg21
g982
sg22
g14
sg23
Nsg26
Nsg27
g14
sg28
g14
sbsV_81b5ad040dc011deb8c6000c295e15ce
p990
g0
(g474
g2
Ntp991
Rp992
(dp993
g13
g14
sg15
S'Emergency'
p994
sg27
g14
sg28
S'Ratings for Branch 1_2_0_1  - Emergency'
p995
sg17
g990
sg251
S'894.892917'
p996
sg65
V./data/10_Bus.xml#
p997
sg22
g14
sg23
Nsg254
V./data/10_Bus.xml#
p998
sg26
Nsg256
g14
sg21
g990
sbsV_81b5ad190dc011deb8c6000c295e15ce
p999
g0
(g151
g2
Ntp1000
Rp1001
(dp1002
g13
g14
sg155
g156
sg157
g158
sg65
g159
sg160
V./data/10_Bus.xml#
p1003
sg27
g14
sg161
g162
sg163
V./data/10_Bus.xml#
p1004
sg35
g165
sg166
g167
sg168
g169
sg21
g999
sg170
Nsg28
g14
sg171
g172
sg173
S'true'
p1005
sg26
Nsg15
S'3_2_10_1 '
p1006
sg17
g999
sg175
Nsg22
g14
sg23
Nsg176
NsbsV_81b5acf20dc011deb8c6000c295e15ce
p1007
g0
(g474
g2
Ntp1008
Rp1009
(dp1010
g13
g14
sg15
S'Normal'
p1011
sg27
g14
sg28
S'Ratings for Branch 5_8_1  - Normal'
p1012
sg17
g1007
sg251
S'1312.159703'
p1013
sg65
V./data/10_Bus.xml#
p1014
sg22
g14
sg23
Nsg254
V./data/10_Bus.xml#
p1015
sg26
Nsg256
g14
sg21
g1007
sbsV_81b5ad0d0dc011deb8c6000c295e15ce
p1016
g0
(ccim14.iec61970.wires
RatioTapChanger
p1017
g2
Ntp1018
Rp1019
(dp1020
g13
g14
sS'step_voltage_increment'
p1021
S'1.25'
p1022
sS'tcul_control_mode'
p1023
S'local'
p1024
sg40
Nsg41
g42
sS'sv_tap_step'
p1025
Nsg57
g58
sg71
g72
sg27
g14
sg106
g107
sg35
g36
sg47
g48
sg168
V./data/10_Bus.xml#
p1026
sg109
NsS'normal_step'
p1027
S'23'
p1028
sS'subsequent_delay'
p1029
g14
sg50
g51
sS'neutral_step'
p1030
S'13'
p1031
sg256
S'phase_control'
p1032
sg21
g1016
sS'initial_delay'
p1033
g14
sg28
S'Primary Tap'
p1034
sg135
Nsg84
g85
sg113
g114
sS'high_step'
p1035
S'25'
p1036
sS'transformer_winding'
p1037
V./data/10_Bus.xml#
p1038
sS'neutral_u'
p1039
S'110.0'
p1040
sg90
g91
sS'low_step'
p1041
g496
sg15
S'1_3_0_1 '
p1042
sg116
g117
sg118
g119
sg17
g1016
sg120
g121
sg142
g143
sg22
g14
sg23
Nsg26
Nsg67
g68
sbsV_81b5ad2a0dc011deb8c6000c295e15ce
p1043
g0
(ccim14.iec61970.state_variables
SvTapStep
p1044
g2
Ntp1045
Rp1046
(dp1047
S'position'
p1048
I0
sg26
Nsg490
V./data/10_Bus.xml#
p1049
sg17
g1043
sS'continuous_position'
p1050
S'20'
p1051
sbsV_81b5acaf0dc011deb8c6000c295e15ce
p1052
g0
(g151
g2
Ntp1053
Rp1054
(dp1055
g13
g14
sg155
g156
sg157
g158
sg65
g159
sg160
V./data/10_Bus.xml#
p1056
sg27
g14
sg161
g162
sg163
V./data/10_Bus.xml#
p1057
sg35
g165
sg166
g167
sg168
g169
sg21
g1052
sg170
Nsg28
g14
sg171
g172
sg173
S'true'
p1058
sg26
Nsg15
S'1 '
p1059
sg17
g1052
sg175
Nsg22
g14
sg23
Nsg176
NsbsV_81b5aca80dc011deb8c6000c295e15ce
p1060
g0
(g651
g2
Ntp1061
Rp1062
(dp1063
g655
S'90.0'
p1064
sg657
S'100.0'
p1065
sg26
Nsg17
g1060
sg18
V./data/10_Bus.xml#
p1066
sbsV_81b5ace60dc011deb8c6000c295e15ce
p1067
g0
(g474
g2
Ntp1068
Rp1069
(dp1070
g13
g14
sg15
S'Emergency'
p1071
sg27
g14
sg28
S'Ratings for Branch 4_6_1  - Emergency'
p1072
sg17
g1067
sg251
S'1371.206889'
p1073
sg65
V./data/10_Bus.xml#
p1074
sg22
g14
sg23
Nsg254
V./data/10_Bus.xml#
p1075
sg26
Nsg256
g14
sg21
g1067
sbsV_81b5acd30dc011deb8c6000c295e15ce
p1076
g0
(g151
g2
Ntp1077
Rp1078
(dp1079
g13
g14
sg155
g156
sg157
g158
sg65
g159
sg160
V./data/10_Bus.xml#
p1080
sg27
g14
sg161
g162
sg163
V./data/10_Bus.xml#
p1081
sg35
g165
sg166
g167
sg168
g169
sg21
g1076
sg170
Nsg28
g14
sg171
g172
sg173
S'true'
p1082
sg26
Nsg15
S'1 '
p1083
sg17
g1076
sg175
Nsg22
g14
sg23
Nsg176
NsbsV_81b5ad0b0dc011deb8c6000c295e15ce
p1084
g0
(g474
g2
Ntp1085
Rp1086
(dp1087
g13
g14
sg15
S'ShortTerm'
p1088
sg27
g14
sg28
S'Ratings for Branch 1_3_0_1  - ShortTerm'
p1089
sg17
g1084
sg251
S'3306.642451'
p1090
sg65
V./data/10_Bus.xml#
p1091
sg22
g14
sg23
Nsg254
V./data/10_Bus.xml#
p1092
sg26
Nsg256
g14
sg21
g1084
sbsV_81b5acdd0dc011deb8c6000c295e15ce
p1093
g0
(g474
g2
Ntp1094
Rp1095
(dp1096
g13
g14
sg15
S'Normal'
p1097
sg27
g14
sg28
S'Ratings for Branch 3_8_1  - Normal'
p1098
sg17
g1093
sg251
S'1574.591643'
p1099
sg65
V./data/10_Bus.xml#
p1100
sg22
g14
sg23
Nsg254
V./data/10_Bus.xml#
p1101
sg26
Nsg256
g14
sg21
g1093
sbsV_81b5ac760dc011deb8c6000c295e15ce
p1102
g0
(g441
g2
Ntp1103
Rp1104
(dp1105
g13
g14
sg15
g14
sg22
g14
sg445
S'400.0'
p1106
sg17
g1102
sg21
g1102
sg447
S'false'
p1107
sg160
g449
sg23
Nsg450
g451
sg26
Nsg27
g14
sg28
g14
sbsV_81b5acc00dc011deb8c6000c295e15ce
p1108
g0
(ccim14.iec61970.generation.production
WindGeneratingUnit
p1109
g2
Ntp1110
Rp1111
(dp1112
g122
g123
sg13
g14
sg46
F0.0
sg100
g14
sg69
g14
sg101
g102
sg39
g14
sg40
Nsg41
g42
sg124
g14
sg70
I00
sg142
g143
sg139
S'250.000'
p1113
sg43
g14
sg44
g14
sg103
S'10.000'
p1114
sg125
g14
sg104
g14
sg126
g14
sg45
Nsg27
g14
sg73
g74
sg105
g14
sg28
S'           '
p1115
sg106
g107
sg120
g121
sg146
g147
sg37
g38
sg127
g14
sg108
g14
sg22
g14
sg75
g14
sg76
g14
sg47
g48
sg49
S'2.000'
p1116
sg15
S"1_9 '1 ' "
p1117
sg77
g14
sg71
g72
sg81
S'false'
p1118
sg109
Nsg78
g14
sg50
g51
sg130
g14
sg57
g58
sg53
g14
sg131
g14
sg132
F0.0
sg110
Nsg35
g36
sg135
Nsg111
I0
sg136
F0.0
sg112
Nsg83
g14
sg84
g85
sg86
g14
sg87
I00
sg88
g14
sg89
F0.0
sg54
g14
sg59
g14
sg90
g91
sg118
g119
sg60
S'12.000'
p1119
sg17
g1108
sg62
I00
sg116
g117
sg63
g64
sg141
Nsg21
g1108
sg113
g114
sg52
F0.0
sg92
S'220.000'
p1120
sg94
Nsg95
g96
sg97
g98
sg67
g68
sg144
S'130.000'
p1121
sg134
g14
sg23
Nsg65
g66
sg26
Nsg128
S'50'
p1122
sg148
g149
sbsV_81b5ac870dc011deb8c6000c295e15ce
p1123
g0
(g400
g2
Ntp1124
Rp1125
(dp1126
g13
g14
sg404
I00
sg41
Nsg405
g14
sg406
g14
sg407
I00
sg27
g14
sg409
Nsg410
V./data/10_Bus.xml#
p1127
sg18
g412
sg21
g1123
sg413
V./data/10_Bus.xml#
p1128
sg415
S'137'
p1129
sg416
g14
sg417
g14
sg28
S'            '
p1130
sg22
g14
sg419
Nsg420
g923
sg421
Nsg15
S'5_NODE 5'
p1131
sg423
I00
sg424
g229
sg385
g425
sg17
g1123
sg426
S'4'
p1132
sg427
V./data/10_Bus.xml#
p1133
sg23
Nsg26
NsbsV_81b5ad020dc011deb8c6000c295e15ce
p1134
g0
(g474
g2
Ntp1135
Rp1136
(dp1137
g13
g14
sg15
S'Normal'
p1138
sg27
g14
sg28
S'Ratings for Branch 1_2_0_1  - Normal'
p1139
sg17
g1134
sg251
S'938.194187'
p1140
sg65
V./data/10_Bus.xml#
p1141
sg22
g14
sg23
Nsg254
V./data/10_Bus.xml#
p1142
sg26
Nsg256
g14
sg21
g1134
sbsV_81b5acc90dc011deb8c6000c295e15ce
p1143
g0
(g651
g2
Ntp1144
Rp1145
(dp1146
g655
S'-60.0'
p1147
sg657
S'-118.17'
p1148
sg26
Nsg17
g1143
sg18
V./data/10_Bus.xml#
p1149
sbsV_81b5acc80dc011deb8c6000c295e15ce
p1150
g0
(g484
g2
Ntp1151
Rp1152
(dp1153
g13
g14
sg40
Nsg41
g42
sg21
g1150
sg488
g489
sg71
g72
sg27
g14
sg106
g107
sg490
g491
sg492
S'404.0'
p1154
sg35
g36
sg47
g48
sg18
V./data/10_Bus.xml#
p1155
sg109
Nsg50
g51
sg142
g143
sg28
g14
sg135
Nsg84
g85
sg113
g114
sg495
Nsg57
g58
sg90
g91
sg15
g229
sg116
g117
sg118
g119
sg497
S'0.0'
p1156
sg17
g1150
sg120
g121
sg499
S'false'
p1157
sg501
Vhttp://iec.ch/TC57/2009/CIM-schema-cim14#
p1158
sg22
g14
sg23
Nsg26
Nsg67
g68
sbsV_81b5aced0dc011deb8c6000c295e15ce
p1159
g0
(g474
g2
Ntp1160
Rp1161
(dp1162
g13
g14
sg15
S'Emergency'
p1163
sg27
g14
sg28
S'Ratings for Branch 4_7_1  - Emergency'
p1164
sg17
g1159
sg251
S'1226.869322'
p1165
sg65
V./data/10_Bus.xml#
p1166
sg22
g14
sg23
Nsg254
V./data/10_Bus.xml#
p1167
sg26
Nsg256
g14
sg21
g1159
sbsV_50101000000000000000000000000077
p1168
g0
(g151
g2
Ntp1169
Rp1170
(dp1171
g13
g14
sg155
g156
sg157
g158
sg65
g159
sg160
V./data/10_Bus.xml#
p1172
sg27
g14
sg161
g162
sg163
V./data/10_Bus.xml#
p1173
sg35
g165
sg166
g167
sg168
g169
sg21
g1168
sg170
Nsg28
g14
sg171
g172
sg173
S'true'
p1174
sg26
Nsg15
S'gen5b '
p1175
sg17
g1168
sg175
Nsg22
g14
sg23
Nsg176
NsbsV_81b5ac7f0dc011deb8c6000c295e15ce
p1176
g0
(ccim14.iec61970.core
VoltageLevel
p1177
g2
Ntp1178
Rp1179
(dp1180
g13
g14
sg40
Nsg41
g42
sS'high_voltage_limit'
p1181
g14
sg71
g72
sg27
g14
sg106
g107
sg163
g378
sg35
g36
sg47
g48
sg379
(lp1182
sg109
Nsg50
g51
sg21
g1176
sg28
g14
sg135
Nsg22
g14
sg84
g85
sg113
g114
sg214
V./data/10_Bus.xml#
p1183
sg382
g383
sS'low_voltage_limit'
p1184
g14
sg90
g91
sg15
S'400.0 kV'
p1185
sS'substation'
p1186
Nsg385
g386
sg116
g117
sg57
g58
sg17
g1176
sg120
g121
sg142
g143
sg118
g119
sg23
Nsg26
Nsg67
g68
sbsV_81b5acd20dc011deb8c6000c295e15ce
p1187
g0
(g313
g2
Ntp1188
Rp1189
(dp1190
g13
g14
sg40
Nsg185
g186
sg187
g188
sg317
g318
sg189
Nsg113
g114
sg233
g234
sg71
g72
sg27
S'10T-AT-DE-00008Y'
p1191
sg106
g107
sg194
g195
sg320
S'0.0001'
p1192
sg322
S'0.0002'
p1193
sg35
g36
sg47
g48
sg109
Nsg41
g42
sg50
g51
sg65
g66
sg21
g1187
sg28
S"Westtirol-Memmingen .L-XWE_ME21-AT-DE.The line shouldn't be considered in N-1"
p1194
sg135
Nsg81
S'false'
p1195
sg22
g14
sg84
g85
sg326
S'0.0002'
p1196
sg214
V./data/10_Bus.xml#
p1197
sg216
g217
sg57
g58
sg228
S'2.714'
p1198
sg222
S'40.936'
p1199
sg196
g197
sg90
g91
sg118
g119
sg331
g332
sg333
S'0.0004'
p1200
sg15
S"1_2 7 '1 ' "
p1201
sg62
I00
sg116
g117
sg63
g64
sg141
Nsg336
Nsg17
g1187
sg120
g121
sg224
S'2.704'
p1202
sg142
g143
sg146
g147
sg23
Nsg242
S'39.936'
p1203
sg26
Nsg67
g68
sbsV_81b5acd00dc011deb8c6000c295e15ce
p1204
g0
(g474
g2
Ntp1205
Rp1206
(dp1207
g13
g14
sg15
S'ShortTerm'
p1208
sg27
g14
sg28
S'Ratings for Branch 2_6_1  - ShortTerm'
p1209
sg17
g1204
sg251
S'1948.557159'
p1210
sg65
V./data/10_Bus.xml#
p1211
sg22
g14
sg23
Nsg254
V./data/10_Bus.xml#
p1212
sg26
Nsg256
g14
sg21
g1204
sbsV_81b5acad0dc011deb8c6000c295e15ce
p1213
g0
(ccim14.iec61970.wires
EnergyConsumer
p1214
g2
Ntp1215
Rp1216
(dp1217
g13
g14
sg40
Nsg185
g186
sg187
g188
sg189
NsS'customer_count'
p1218
I0
sg65
g66
sg71
g72
sS'load_response'
p1219
V./data/10_Bus.xml#
p1220
sS'phase_loads'
p1221
(lp1222
sg106
g107
sg194
g195
sS'qfixed'
p1223
g14
sg27
g14
sg35
g36
sg47
g48
sg109
NsS'qfixed_pct'
p1224
g14
sS'service_delivery_points'
p1225
(lp1226
sg21
g1213
sg28
S"4 '1 '"
p1227
sg135
NsS'power_cut_zone'
p1228
Nsg81
S'false'
p1229
sg22
g14
sg84
g85
sg113
g114
sg214
Nsg216
g217
sS'pfixed_pct'
p1230
g14
sg50
g51
sg57
g58
sg196
g197
sg90
g91
sg118
g119
sg41
g42
sg15
S'1 '
p1231
sg62
I00
sS'pfixed'
p1232
g14
sg63
g64
sg141
Nsg17
g1213
sg120
g121
sg116
g117
sg142
g143
sg146
g147
sg23
Nsg233
g234
sg26
Nsg67
g68
sbsV_81b5ad1d0dc011deb8c6000c295e15ce
p1233
g0
(g151
g2
Ntp1234
Rp1235
(dp1236
g13
g14
sg155
g156
sg157
g158
sg65
g159
sg160
V./data/10_Bus.xml#
p1237
sg27
g14
sg161
g162
sg163
V./data/10_Bus.xml#
p1238
sg35
g165
sg166
g167
sg168
g169
sg21
g1233
sg170
Nsg28
g14
sg171
g172
sg173
S'true'
p1239
sg26
Nsg15
S'3_2_10_1 '
p1240
sg17
g1233
sg175
Nsg22
g14
sg23
Nsg176
NsbsV_81b5ad4a0dc011deb8c6000c295e15ce
p1241
g0
(g484
g2
Ntp1242
Rp1243
(dp1244
g13
g14
sg40
Nsg41
g42
sg21
g1241
sg488
g489
sg71
g72
sg27
g14
sg106
g107
sg490
g491
sg492
S'412.6'
p1245
sg35
g36
sg47
g48
sg18
V./data/10_Bus.xml#
p1246
sg109
Nsg50
g51
sg142
g143
sg28
g14
sg135
Nsg84
g85
sg113
g114
sg495
Nsg57
g58
sg90
g91
sg15
g1132
sg116
g117
sg118
g119
sg497
S'20.0'
p1247
sg17
g1241
sg120
g121
sg499
S'true'
p1248
sg501
Vhttp://iec.ch/TC57/2009/CIM-schema-cim14#
p1249
sg22
g14
sg23
Nsg26
Nsg67
g68
sbsV_81b5ad480dc011deb8c6000c295e15ce
p1250
g0
(g151
g2
Ntp1251
Rp1252
(dp1253
g13
g14
sg155
g156
sg157
g158
sg65
g159
sg160
V./data/10_Bus.xml#
p1254
sg27
g14
sg161
g162
sg163
V./data/10_Bus.xml#
p1255
sg35
g165
sg166
g167
sg168
g169
sg21
g1250
sg170
Nsg28
g14
sg171
g172
sg173
S'true'
p1256
sg26
Nsg15
S'NODE 2       1'
p1257
sg17
g1250
sg175
Nsg22
g14
sg23
Nsg176
NsbsV_81b5acdb0dc011deb8c6000c295e15ce
p1258
g0
(g151
g2
Ntp1259
Rp1260
(dp1261
g13
g14
sg155
g156
sg157
g158
sg65
g159
sg160
V./data/10_Bus.xml#
p1262
sg27
g14
sg161
g162
sg163
V./data/10_Bus.xml#
p1263
sg35
g165
sg166
g167
sg168
g169
sg21
g1258
sg170
Nsg28
g14
sg171
g172
sg173
S'true'
p1264
sg26
Nsg15
S'1 '
p1265
sg17
g1258
sg175
Nsg22
g14
sg23
Nsg176
NsbsV_81b5ad250dc011deb8c6000c295e15ce
p1266
g0
(g474
g2
Ntp1267
Rp1268
(dp1269
g13
g14
sg15
S'Normal'
p1270
sg27
g14
sg28
S'Ratings for Branch 4_5_0_1  - Normal'
p1271
sg17
g1266
sg251
S'461.880215'
p1272
sg65
V./data/10_Bus.xml#
p1273
sg22
g14
sg23
Nsg254
V./data/10_Bus.xml#
p1274
sg26
Nsg256
g14
sg21
g1266
sbsV_81b5ad000dc011deb8c6000c295e15ce
p1275
g0
(g178
g2
Ntp1276
Rp1277
(dp1278
g13
g14
sg182
g14
sg118
g119
sg183
g184
sg40
Nsg185
g186
sg187
g188
sg142
g143
sg189
Nsg190
g554
sg21
g1275
sg71
g72
sg27
g14
sg192
Vhttp://iec.ch/TC57/2009/CIM-schema-cim14#
p1279
sg194
g195
sg196
g197
sg198
I00
sg199
Vhttp://iec.ch/TC57/2009/CIM-schema-cim14#
p1280
sg35
g36
sg47
g48
sg201
S'620.00'
p1281
sg203
S'650.00'
p1282
sg109
Nsg205
S'400.0'
p1283
sg41
g42
sg50
g51
sg81
I00
sg65
g66
sg57
g58
sg207
Nsg28
S'1_2_0_1  To Winding'
p1284
sg209
g554
sg135
Nsg211
g212
sg22
g14
sg84
g85
sg213
Nsg113
g114
sg214
V./data/10_Bus.xml#
p1285
sg216
g217
sg218
g219
sg220
S'630.00'
p1286
sg222
g554
sg224
S'0.0'
p1287
sg90
g91
sg106
g107
sg226
S'0.0'
p1288
sg228
g14
sg15
S'1_2_0_1 '
p1289
sg231
S'0.0'
p1290
sg62
I00
sg116
g117
sg63
g64
sg141
Nsg17
g1275
sg233
g234
sg120
g121
sg235
g236
sg237
g554
sg239
Nsg240
g554
sg146
g147
sg23
Nsg242
S'0.0'
p1291
sg26
Nsg67
g68
sbsV_81b5ac8d0dc011deb8c6000c295e15ce
p1292
g0
(g942
g2
Ntp1293
Rp1294
(dp1295
g13
g14
sg946
Nsg40
Nsg41
g42
sg71
g72
sg27
g14
sg161
g947
sg106
g107
sg163
g948
sg35
g36
sg47
g48
sg73
g949
sg950
g951
sg109
Nsg50
g51
sg952
S'10.000'
p1296
sg256
g954
sg21
g1292
sg28
S'XNODES      '
p1297
sg135
Nsg84
g85
sg113
g114
sg57
g58
sg90
g91
sg15
g923
sg116
g117
sg118
g119
sg17
g1292
sg120
g121
sg142
g143
sg22
g14
sg23
Nsg956
S'0.000'
p1298
sg26
Nsg67
g68
sbsV_81b5ad0e0dc011deb8c6000c295e15ce
p1299
g0
(g1044
g2
Ntp1300
Rp1301
(dp1302
g1048
I0
sg26
Nsg490
V./data/10_Bus.xml#
p1303
sg17
g1299
sg1050
S'23'
p1304
sbsV_10000000000000000000000000000022
p1305
g0
(g1214
g2
Ntp1306
Rp1307
(dp1308
g13
g14
sg40
Nsg185
g186
sg187
g188
sg189
Nsg1218
I0
sg65
g66
sg71
g72
sg1219
V./data/10_Bus.xml#
p1309
sg1221
g1222
sg106
g107
sg194
g195
sg1223
g14
sg27
g14
sg35
g36
sg47
g48
sg109
Nsg1224
g14
sg1225
g1226
sg21
g1305
sg28
S'4b'
p1310
sg135
Nsg1228
Nsg81
S'true'
p1311
sg22
g14
sg84
g85
sg113
g114
sg214
Nsg216
g217
sg1230
g14
sg50
g51
sg57
g58
sg196
g197
sg90
g91
sg118
g119
sg41
g42
sg15
S'4b'
p1312
sg62
I00
sg1232
g14
sg63
g64
sg141
Nsg17
g1305
sg120
g121
sg116
g117
sg142
g143
sg146
g147
sg23
Nsg233
g234
sg26
Nsg67
g68
sbsV_81b5ac6c0dc011deb8c6000c295e15ce
p1313
g0
(g430
g2
Ntp1314
Rp1315
(dp1316
g13
g14
sg15
S'AREA 1      '
p1317
sg435
g436
sg387
V./data/10_Bus.xml#
p1318
sg438
g439
sg17
g1313
sg21
g1313
sg22
g14
sg23
Nsg26
Nsg27
g14
sg28
g14
sbsV_50000000000000000000000000000077
p1319
g0
(g31
g2
Ntp1320
Rp1321
(dp1322
g35
g36
sg37
g38
sg39
g14
sg40
Nsg41
g42
sg43
g14
sg44
g14
sg45
Nsg46
F0.0
sg47
g48
sg49
g14
sg21
g1319
sg50
g51
sg52
F0.0
sg53
g14
sg54
g14
sg55
g56
sg57
g58
sg59
g14
sg60
g14
sg15
S"1_5b '1 ' "
p1323
sg62
I00
sg63
g64
sg65
g66
sg67
g68
sg13
g14
sg69
g14
sg70
I00
sg71
g72
sg27
g14
sg73
g74
sg75
g14
sg76
g14
sg77
g14
sg78
g14
sg79
g80
sg81
S'true'
p1324
sg83
g14
sg84
g85
sg86
g14
sg87
I00
sg88
g14
sg89
F0.0
sg90
g91
sg92
S'10.0'
p1325
sg94
Nsg95
g96
sg97
g98
sg22
g14
sg99
F0.0
sg100
g14
sg101
g102
sg103
g14
sg104
g14
sg105
g14
sg106
g107
sg108
g14
sg109
Nsg110
Nsg111
I0
sg112
Nsg113
g114
sg115
Nsg116
g117
sg118
g119
sg120
g121
sg23
Nsg122
g123
sg124
g14
sg125
g14
sg126
g14
sg127
g14
sg128
g14
sg129
Nsg130
g14
sg131
g14
sg132
F0.0
sg28
S'         '
p1326
sg134
g14
sg135
Nsg136
F0.0
sg137
g138
sg139
S'10.0'
p1327
sg141
Nsg17
g1319
sg142
g143
sg144
S'10.0'
p1328
sg146
g147
sg26
Nsg148
g149
sbsV_81b5ad130dc011deb8c6000c295e15ce
p1329
g0
(g474
g2
Ntp1330
Rp1331
(dp1332
g13
g14
sg15
S'ShortTerm'
p1333
sg27
g14
sg28
S'Ratings for Branch 1_3_0_1  - ShortTerm'
p1334
sg17
g1329
sg251
S'1653.321225'
p1335
sg65
V./data/10_Bus.xml#
p1336
sg22
g14
sg23
Nsg254
V./data/10_Bus.xml#
p1337
sg26
Nsg256
g14
sg21
g1329
sbsV_81b5ad3c0dc011deb8c6000c295e15ce
p1338
g0
(g725
g2
Ntp1339
Rp1340
(dp1341
g26
Nsg729
g554
sg730
I0
sg17
g1338
sg731
V./data/10_Bus.xml#
p1342
sbsV_81b5ac790dc011deb8c6000c295e15ce
p1343
g0
(g400
g2
Ntp1344
Rp1345
(dp1346
g13
g14
sg404
I00
sg41
Nsg405
g14
sg406
g14
sg407
I00
sg27
g14
sg409
Nsg410
V./data/10_Bus.xml#
p1347
sg18
g412
sg21
g1343
sg413
V./data/10_Bus.xml#
p1348
sg415
g14
sg416
g14
sg417
g14
sg28
S'         '
p1349
sg22
g14
sg419
Nsg420
F0.0
sg421
Nsg15
S'3_NODE 3'
p1350
sg423
I00
sg424
F0.0
sg385
g425
sg17
g1343
sg426
F0.0
sg427
V./data/10_Bus.xml#
p1351
sg23
Nsg26
NsbsV_60070000000000000000000000000099
p1352
g0
(ccim14.iec61970.wires
Switch
p1353
g2
Ntp1354
Rp1355
(dp1356
g13
g14
sg40
Nsg185
g186
sg187
g188
sS'switching_operations'
p1357
(lp1358
sg189
Nsg233
g234
sg901
g14
sg71
g72
sg27
g14
sS'composite_switch'
p1359
Nsg194
g195
sg35
g36
sg47
g48
sg109
Nsg889
I0
sg50
g51
sg21
g1352
sg106
g107
sg41
g42
sg28
g14
sg135
Nsg81
S'true'
p1360
sg22
g14
sg84
g85
sg113
g114
sg214
Nsg216
g217
sS'normal_open'
p1361
I00
sg57
g58
sg196
g197
sg90
g91
sg118
g119
sS'connect_disconnect_functions'
p1362
(lp1363
sS'retained'
p1364
I00
sg15
S'6to7'
p1365
sg62
I00
sg116
g117
sg63
g64
sg141
Nsg17
g1352
sg120
g121
sS'load_mgmt_functions'
p1366
(lp1367
sg142
g143
sg146
g147
sg23
Nsg65
g66
sg26
Nsg67
g68
sbsV_81b5acd10dc011deb8c6000c295e15ce
p1368
g0
(g474
g2
Ntp1369
Rp1370
(dp1371
g13
g14
sg15
S'Emergency'
p1372
sg27
g14
sg28
S'Ratings for Branch 2_6_1  - Emergency'
p1373
sg17
g1368
sg251
S'1804.219591'
p1374
sg65
V./data/10_Bus.xml#
p1375
sg22
g14
sg23
Nsg254
V./data/10_Bus.xml#
p1376
sg26
Nsg256
g14
sg21
g1368
sbsV_81b5ac880dc011deb8c6000c295e15ce
p1377
g0
(g1177
g2
Ntp1378
Rp1379
(dp1380
g13
g14
sg40
Nsg41
g42
sg1181
g14
sg71
g72
sg27
g14
sg106
g107
sg163
g378
sg35
g36
sg47
g48
sg379
g1182
sg109
Nsg50
g51
sg21
g1377
sg28
g14
sg135
Nsg22
g14
sg84
g85
sg113
g114
sg214
V./data/10_Bus.xml#
p1381
sg382
g383
sg1184
g14
sg90
g91
sg15
S'220.0 kV'
p1382
sg1186
Nsg385
g386
sg116
g117
sg57
g58
sg17
g1377
sg120
g121
sg142
g143
sg118
g119
sg23
Nsg26
Nsg67
g68
sbsV_81b5ac9f0dc011deb8c6000c295e15ce
p1383
g0
(g453
g2
Ntp1384
Rp1385
(dp1386
g163
V./data/10_Bus.xml#
p1387
sg26
Nsg458
S'6.5541'
p1388
sg17
g1383
sg460
S'15.7646475'
p1389
sbsV_00000000000000000000000000000188
p1390
g0
(ccim14.iec61970.operational_limits
OperationalLimitType
p1391
g2
Ntp1392
Rp1393
(dp1394
S'operational_limit'
p1395
(lp1396
sS'direction'
p1397
Vhttp://iec.ch/TC57/2009/CIM-schema-cim14#
p1398
sg26
NsS'acceptable_duration'
p1399
g554
sg17
g1390
sbsV_81b5ad3e0dc011deb8c6000c295e15ce
p1400
g0
(g151
g2
Ntp1401
Rp1402
(dp1403
g13
g14
sg155
g156
sg157
g158
sg65
g159
sg160
V./data/10_Bus.xml#
p1404
sg27
g14
sg161
g162
sg163
V./data/10_Bus.xml#
p1405
sg35
g165
sg166
g167
sg168
g169
sg21
g1400
sg170
Nsg28
g14
sg171
g172
sg173
S'true'
p1406
sg26
Nsg15
S'NODE 1       2'
p1407
sg17
g1400
sg175
Nsg22
g14
sg23
Nsg176
NsbsV_81b5acfc0dc011deb8c6000c295e15ce
p1408
g0
(g1017
g2
Ntp1409
Rp1410
(dp1411
g13
g14
sg1021
S'1.25'
p1412
sg1023
g1024
sg40
Nsg41
g42
sg1025
Nsg57
g58
sg71
g72
sg27
g14
sg106
g107
sg35
g36
sg47
g48
sg168
V./data/10_Bus.xml#
p1413
sg109
Nsg1027
S'23'
p1414
sg1029
g14
sg50
g51
sg1030
S'13'
p1415
sg256
g1032
sg21
g1408
sg1033
g14
sg28
S'Primary Tap'
p1416
sg135
Nsg84
g85
sg113
g114
sg1035
S'25'
p1417
sg1037
V./data/10_Bus.xml#
p1418
sg1039
S'110.0'
p1419
sg90
g91
sg1041
g496
sg15
S'1_2_0_1 '
p1420
sg116
g117
sg118
g119
sg17
g1408
sg120
g121
sg142
g143
sg22
g14
sg23
Nsg26
Nsg67
g68
sbsV_81b5acec0dc011deb8c6000c295e15ce
p1421
g0
(g474
g2
Ntp1422
Rp1423
(dp1424
g13
g14
sg15
S'ShortTerm'
p1425
sg27
g14
sg28
S'Ratings for Branch 4_7_1  - ShortTerm'
p1426
sg17
g1421
sg251
S'1371.206889'
p1427
sg65
V./data/10_Bus.xml#
p1428
sg22
g14
sg23
Nsg254
V./data/10_Bus.xml#
p1429
sg26
Nsg256
g14
sg21
g1421
sbsV_81b5ace80dc011deb8c6000c295e15ce
p1430
g0
(g151
g2
Ntp1431
Rp1432
(dp1433
g13
g14
sg155
g156
sg157
g158
sg65
g159
sg160
V./data/10_Bus.xml#
p1434
sg27
g14
sg161
g162
sg163
V./data/10_Bus.xml#
p1435
sg35
g165
sg166
g167
sg168
g169
sg21
g1430
sg170
Nsg28
g14
sg171
g172
sg173
S'true'
p1436
sg26
Nsg15
S'1 '
p1437
sg17
g1430
sg175
Nsg22
g14
sg23
Nsg176
NsbsV_81b5acb30dc011deb8c6000c295e15ce
p1438
g0
(g151
g2
Ntp1439
Rp1440
(dp1441
g13
g14
sg155
g156
sg157
g158
sg65
g159
sg160
V./data/10_Bus.xml#
p1442
sg27
g14
sg161
g162
sg163
V./data/10_Bus.xml#
p1443
sg35
g165
sg166
g167
sg168
g169
sg21
g1438
sg170
Nsg28
g14
sg171
g172
sg173
S'true'
p1444
sg26
Nsg15
S'1 '
p1445
sg17
g1438
sg175
Nsg22
g14
sg23
Nsg176
NsbsV_81b5acb80dc011deb8c6000c295e15ce
p1446
g0
(g484
g2
Ntp1447
Rp1448
(dp1449
g13
g14
sg40
Nsg41
g42
sg21
g1446
sg488
g489
sg71
g72
sg27
g14
sg106
g107
sg490
g491
sg492
S'110.0'
p1450
sg35
g36
sg47
g48
sg18
V./data/10_Bus.xml#
p1451
sg109
Nsg50
g51
sg142
g143
sg28
g14
sg135
Nsg84
g85
sg113
g114
sg495
Nsg57
g58
sg90
g91
sg15
g496
sg116
g117
sg118
g119
sg497
S'0.0'
p1452
sg17
g1446
sg120
g121
sg499
S'false'
p1453
sg501
Vhttp://iec.ch/TC57/2009/CIM-schema-cim14#
p1454
sg22
g14
sg23
Nsg26
Nsg67
g68
sbsV_81b5acef0dc011deb8c6000c295e15ce
p1455
g0
(g151
g2
Ntp1456
Rp1457
(dp1458
g13
g14
sg155
g156
sg157
g158
sg65
g159
sg160
V./data/10_Bus.xml#
p1459
sg27
g14
sg161
g162
sg163
V./data/10_Bus.xml#
p1460
sg35
g165
sg166
g167
sg168
g169
sg21
g1455
sg170
Nsg28
g14
sg171
g172
sg173
S'true'
p1461
sg26
Nsg15
S'1 '
p1462
sg17
g1455
sg175
Nsg22
g14
sg23
Nsg176
NsbsV_81b5acf70dc011deb8c6000c295e15ce
p1463
g0
(g178
g2
Ntp1464
Rp1465
(dp1466
g13
g14
sg182
g14
sg118
g119
sg183
g184
sg40
Nsg185
g186
sg187
g188
sg142
g143
sg189
Nsg190
S'0.002'
p1467
sg21
g1463
sg71
g72
sg27
g14
sg192
Vhttp://iec.ch/TC57/2009/CIM-schema-cim14#
p1468
sg194
g195
sg196
g197
sg198
I00
sg199
Vhttp://iec.ch/TC57/2009/CIM-schema-cim14#
p1469
sg35
g36
sg47
g48
sg201
S'620.00'
p1470
sg203
S'650.00'
p1471
sg109
Nsg205
S'110.0'
p1472
sg41
g42
sg50
g51
sg81
I00
sg65
g66
sg57
g58
sg207
Nsg28
S'1_2_0_1  From Winding'
p1473
sg209
S'0.001'
p1474
sg135
Nsg211
g212
sg22
g14
sg84
g85
sg213
Nsg113
g114
sg214
V./data/10_Bus.xml#
p1475
sg216
g217
sg218
g219
sg220
S'630.00'
p1476
sg222
S'9.5'
p1477
sg224
S'0.2057'
p1478
sg90
g91
sg106
g107
sg226
S'0.0'
p1479
sg228
S'0.3'
p1480
sg15
S'1_2_0_1 '
p1481
sg231
S'0.0'
p1482
sg62
I00
sg116
g117
sg63
g64
sg141
Nsg17
g1463
sg233
g234
sg120
g121
sg235
g236
sg237
S'0.01'
p1483
sg239
Nsg240
S'0.02'
p1484
sg146
g147
sg23
Nsg242
S'9.30732'
p1485
sg26
Nsg67
g68
sbsV_81b5ad260dc011deb8c6000c295e15ce
p1486
g0
(g474
g2
Ntp1487
Rp1488
(dp1489
g13
g14
sg15
S'ShortTerm'
p1490
sg27
g14
sg28
S'Ratings for Branch 4_5_0_1  - ShortTerm'
p1491
sg17
g1486
sg251
S'476.313972'
p1492
sg65
V./data/10_Bus.xml#
p1493
sg22
g14
sg23
Nsg254
V./data/10_Bus.xml#
p1494
sg26
Nsg256
g14
sg21
g1486
sbsV_81b5ad2c0dc011deb8c6000c295e15ce
p1495
g0
(g178
g2
Ntp1496
Rp1497
(dp1498
g13
g14
sg182
g14
sg118
g119
sg183
g184
sg40
Nsg185
g186
sg187
g188
sg142
g143
sg189
Nsg190
g554
sg21
g1495
sg71
g72
sg27
g14
sg192
Vhttp://iec.ch/TC57/2009/CIM-schema-cim14#
p1499
sg194
g195
sg196
g197
sg198
I00
sg199
Vhttp://iec.ch/TC57/2009/CIM-schema-cim14#
p1500
sg35
g36
sg47
g48
sg201
S'340.00'
p1501
sg203
S'320.00'
p1502
sg109
Nsg205
S'245.4'
p1503
sg41
g42
sg50
g51
sg81
I00
sg65
g66
sg57
g58
sg207
Nsg28
S'4_5_0_1  To Winding'
p1504
sg209
g554
sg135
Nsg211
g212
sg22
g14
sg84
g85
sg213
Nsg113
g114
sg214
V./data/10_Bus.xml#
p1505
sg216
g217
sg218
g219
sg220
S'330.00'
p1506
sg222
g554
sg224
S'0.0'
p1507
sg90
g91
sg106
g107
sg226
S'0.0'
p1508
sg228
g554
sg15
S'4_5_0_1 '
p1509
sg231
S'0.0'
p1510
sg62
I00
sg116
g117
sg63
g64
sg141
Nsg17
g1495
sg233
g234
sg120
g121
sg235
g236
sg237
g554
sg239
Nsg240
g554
sg146
g147
sg23
Nsg242
S'0.0'
p1511
sg26
Nsg67
g68
sbsV_81b5ad3d0dc011deb8c6000c295e15ce
p1512
g0
(g883
g2
Ntp1513
Rp1514
(dp1515
g13
g14
sg141
Nsg118
g119
sg887
g14
sg40
Nsg185
g186
sg187
g188
sg189
Nsg113
g114
sg233
g234
sg21
g1512
sg71
g72
sg27
g14
sg106
g107
sg120
g121
sg194
g195
sg268
g14
sg35
g36
sg47
g48
sg271
g272
sg168
V./data/10_Bus.xml#
p1516
sg274
g14
sg109
Nsg889
I0
sg50
g51
sg142
g143
sg41
g42
sg28
S'SWSH1'
p1517
sg135
Nsg81
S'false'
p1518
sg22
g14
sg892
Nsg84
g85
sg214
V./data/10_Bus.xml#
p1519
sg894
g14
sg216
g217
sg57
g58
sg196
g197
sg895
g14
sg90
g91
sg896
I0
sg897
g14
sg898
S'0.003'
p1520
sg15
S'NODE 1       2'
p1521
sg901
g14
sg116
g117
sg63
g64
sg62
I00
sg17
g1512
sg902
g229
sg903
g496
sg146
g147
sg23
Nsg65
g66
sg26
Nsg904
S'0.001'
p1522
sg67
g68
sg906
g14
sbsV_81b5ad3f0dc011deb8c6000c295e15ce
p1523
g0
(g725
g2
Ntp1524
Rp1525
(dp1526
g26
Nsg729
g554
sg730
I0
sg17
g1523
sg731
V./data/10_Bus.xml#
p1527
sbsV_81b5ac750dc011deb8c6000c295e15ce
p1528
g0
(g1177
g2
Ntp1529
Rp1530
(dp1531
g13
g14
sg40
Nsg41
g42
sg1181
g14
sg71
g72
sg27
g14
sg106
g107
sg163
g378
sg35
g36
sg47
g48
sg379
g1182
sg109
Nsg50
g51
sg21
g1528
sg28
g14
sg135
Nsg22
g14
sg84
g85
sg113
g114
sg214
V./data/10_Bus.xml#
p1532
sg382
g383
sg1184
g14
sg90
g91
sg15
S'400.0 kV'
p1533
sg1186
Nsg385
g386
sg116
g117
sg57
g58
sg17
g1528
sg120
g121
sg142
g143
sg118
g119
sg23
Nsg26
Nsg67
g68
sbsV_81b5ad3a0dc011deb8c6000c295e15ce
p1534
g0
(g883
g2
Ntp1535
Rp1536
(dp1537
g13
g14
sg141
Nsg118
g119
sg887
g14
sg40
Nsg185
g186
sg187
g188
sg189
Nsg113
g114
sg233
g234
sg21
g1534
sg71
g72
sg27
g14
sg106
g107
sg120
g121
sg194
g195
sg268
g14
sg35
g36
sg47
g48
sg271
g272
sg168
V./data/10_Bus.xml#
p1538
sg274
g14
sg109
Nsg889
I0
sg50
g51
sg142
g143
sg41
g42
sg28
S'SWSH0'
p1539
sg135
Nsg81
S'false'
p1540
sg22
g14
sg892
Nsg84
g85
sg214
V./data/10_Bus.xml#
p1541
sg894
g14
sg216
g217
sg57
g58
sg196
g197
sg895
g14
sg90
g91
sg896
I0
sg897
g14
sg898
S'0.001'
p1542
sg15
S'NODE 1       1'
p1543
sg901
g14
sg116
g117
sg63
g64
sg62
I00
sg17
g1534
sg902
g496
sg903
g496
sg146
g147
sg23
Nsg65
g66
sg26
Nsg904
S'0.002'
p1544
sg67
g68
sg906
g14
sbsV_50101099000000000000000000000077
p1545
g0
(g651
g2
Ntp1546
Rp1547
(dp1548
g655
S'0.0'
p1549
sg657
S'-10.0'
p1550
sg26
Nsg17
g1545
sg18
V./data/10_Bus.xml#
p1551
sbsV_81b5acd80dc011deb8c6000c295e15ce
p1552
g0
(g474
g2
Ntp1553
Rp1554
(dp1555
g13
g14
sg15
S'Emergency'
p1556
sg27
g14
sg28
S'Ratings for Branch 2_7_1  - Emergency'
p1557
sg17
g1552
sg251
S'1659.882024'
p1558
sg65
V./data/10_Bus.xml#
p1559
sg22
g14
sg23
Nsg254
V./data/10_Bus.xml#
p1560
sg26
Nsg256
g14
sg21
g1552
sbsV_81b5acc30dc011deb8c6000c295e15ce
p1561
g0
(g484
g2
Ntp1562
Rp1563
(dp1564
g13
g14
sg40
Nsg41
g42
sg21
g1561
sg488
g489
sg71
g72
sg27
g14
sg106
g107
sg490
g491
sg492
S'16.2225'
p1565
sg35
g36
sg47
g48
sg18
V./data/10_Bus.xml#
p1566
sg109
Nsg50
g51
sg142
g143
sg28
g14
sg135
Nsg84
g85
sg113
g114
sg495
Nsg57
g58
sg90
g91
sg15
S'9'
p1567
sg116
g117
sg118
g119
sg497
S'0.0'
p1568
sg17
g1561
sg120
g121
sg499
S'false'
p1569
sg501
Vhttp://iec.ch/TC57/2009/CIM-schema-cim14#
p1570
sg22
g14
sg23
Nsg26
Nsg67
g68
sbsV_81b5ac7e0dc011deb8c6000c295e15ce
p1571
g0
(g400
g2
Ntp1572
Rp1573
(dp1574
g13
g14
sg404
I00
sg41
Nsg405
g14
sg406
g14
sg407
I00
sg27
g14
sg409
Nsg410
V./data/10_Bus.xml#
p1575
sg18
g412
sg21
g1571
sg413
V./data/10_Bus.xml#
p1576
sg415
g14
sg416
g14
sg417
g14
sg28
S'           '
p1577
sg22
g14
sg419
Nsg420
F0.0
sg421
Nsg15
S'4_NODE 4'
p1578
sg423
I00
sg424
F0.0
sg385
g425
sg17
g1571
sg426
F0.0
sg427
V./data/10_Bus.xml#
p1579
sg23
Nsg26
NsbsV_81b5ac8c0dc011deb8c6000c295e15ce
p1580
g0
(g1177
g2
Ntp1581
Rp1582
(dp1583
g13
g14
sg40
Nsg41
g42
sg1181
g14
sg71
g72
sg27
g14
sg106
g107
sg163
g378
sg35
g36
sg47
g48
sg379
g1182
sg109
Nsg50
g51
sg21
g1580
sg28
g14
sg135
Nsg22
g14
sg84
g85
sg113
g114
sg214
V./data/10_Bus.xml#
p1584
sg382
g383
sg1184
g14
sg90
g91
sg15
S'400.0 kV'
p1585
sg1186
Nsg385
g386
sg116
g117
sg57
g58
sg17
g1580
sg120
g121
sg142
g143
sg118
g119
sg23
Nsg26
Nsg67
g68
sbsV_81b5ad060dc011deb8c6000c295e15ce
p1586
g0
(g510
g2
Ntp1587
Rp1588
(dp1589
g13
g14
sg40
Nsg41
g42
sg65
g66
sg71
g72
sg27
g14
sg106
g107
sg194
g195
sg35
g36
sg47
g48
sg514
g14
sg109
Nsg50
g51
sg21
g1586
sg28
S'New project - 2018'
p1590
sg135
Nsg81
S'false'
p1591
sg22
g14
sg84
g85
sg517
g14
sg113
g114
sg518
g14
sg519
g520
sg521
g522
sg57
g58
sg90
g91
sg118
g119
sg15
S"1_1 3 0 '1 ' "
p1592
sg62
I00
sg116
g117
sg63
g64
sg141
Nsg17
g1586
sg120
g121
sg524
Nsg142
g143
sg146
g147
sg23
Nsg26
Nsg67
g68
sbsV_81b5ad140dc011deb8c6000c295e15ce
p1593
g0
(g474
g2
Ntp1594
Rp1595
(dp1596
g13
g14
sg15
S'Emergency'
p1597
sg27
g14
sg28
S'Ratings for Branch 1_3_0_1  - Emergency'
p1598
sg17
g1593
sg251
S'1627.078031'
p1599
sg65
V./data/10_Bus.xml#
p1600
sg22
g14
sg23
Nsg254
V./data/10_Bus.xml#
p1601
sg26
Nsg256
g14
sg21
g1593
sbsV_81b5ac910dc011deb8c6000c295e15ce
p1602
g0
(g983
g2
Ntp1603
Rp1604
(dp1605
g13
g14
sg15
S'XNODES      '
p1606
sg17
g1602
sg988
g989
sg21
g1602
sg22
g14
sg23
Nsg26
Nsg27
g14
sg28
g14
sbsV_81b5acd40dc011deb8c6000c295e15ce
p1607
g0
(g151
g2
Ntp1608
Rp1609
(dp1610
g13
g14
sg155
g156
sg157
g158
sg65
g159
sg160
V./data/10_Bus.xml#
p1611
sg27
g14
sg161
g162
sg163
V./data/10_Bus.xml#
p1612
sg35
g165
sg166
g167
sg168
g169
sg21
g1607
sg170
Nsg28
g14
sg171
g172
sg173
S'true'
p1613
sg26
Nsg15
S'1 '
p1614
sg17
g1607
sg175
Nsg22
g14
sg23
Nsg176
NsbsV_81b5ac800dc011deb8c6000c295e15ce
p1615
g0
(g942
g2
Ntp1616
Rp1617
(dp1618
g13
g14
sg946
Nsg40
Nsg41
g42
sg71
g72
sg27
g14
sg161
g947
sg106
g107
sg163
g948
sg35
g36
sg47
g48
sg73
g949
sg950
g951
sg109
Nsg50
g51
sg952
S'10.000'
p1619
sg256
g954
sg21
g1615
sg28
S'AREA 2      '
p1620
sg135
Nsg84
g85
sg113
g114
sg57
g58
sg90
g91
sg15
g229
sg116
g117
sg118
g119
sg17
g1615
sg120
g121
sg142
g143
sg22
g14
sg23
Nsg956
S'100.000'
p1621
sg26
Nsg67
g68
sbsV_81b5ad430dc011deb8c6000c295e15ce
p1622
g0
(g883
g2
Ntp1623
Rp1624
(dp1625
g13
g14
sg141
Nsg118
g119
sg887
g14
sg40
Nsg185
g186
sg187
g188
sg189
Nsg113
g114
sg233
g234
sg21
g1622
sg71
g72
sg27
g14
sg106
g107
sg120
g121
sg194
g195
sg268
g14
sg35
g36
sg47
g48
sg271
g272
sg168
V./data/10_Bus.xml#
p1626
sg274
g14
sg109
Nsg889
I0
sg50
g51
sg142
g143
sg41
g42
sg28
S'SWSH3'
p1627
sg135
Nsg81
S'false'
p1628
sg22
g14
sg892
Nsg84
g85
sg214
V./data/10_Bus.xml#
p1629
sg894
g14
sg216
g217
sg57
g58
sg196
g197
sg895
g14
sg90
g91
sg896
I0
sg897
g14
sg898
S'0.005'
p1630
sg15
S'NODE 1       4'
p1631
sg901
g14
sg116
g117
sg63
g64
sg62
I00
sg17
g1622
sg902
g1132
sg903
g496
sg146
g147
sg23
Nsg65
g66
sg26
Nsg904
S'0.003'
p1632
sg67
g68
sg906
g14
sbsV_81b5ad1f0dc011deb8c6000c295e15ce
p1633
g0
(g178
g2
Ntp1634
Rp1635
(dp1636
g13
g14
sg182
g14
sg118
g119
sg183
g184
sg40
Nsg185
g186
sg187
g188
sg142
g143
sg189
Nsg190
S'0.001'
p1637
sg21
g1633
sg71
g72
sg27
g14
sg192
Vhttp://iec.ch/TC57/2009/CIM-schema-cim14#
p1638
sg194
g195
sg196
g197
sg198
I00
sg199
Vhttp://iec.ch/TC57/2009/CIM-schema-cim14#
p1639
sg35
g36
sg47
g48
sg201
S'0.00'
p1640
sg203
S'0.00'
p1641
sg109
Nsg205
S'21.0'
p1642
sg41
g42
sg50
g51
sg81
I00
sg65
g66
sg57
g58
sg207
Nsg28
S'3_2_10_1  Trt Winding'
p1643
sg209
S'0.002'
p1644
sg135
Nsg211
g212
sg22
g14
sg84
g85
sg213
Nsg113
g114
sg214
V./data/10_Bus.xml#
p1645
sg216
g217
sg218
g219
sg220
S'0.00'
p1646
sg222
g923
sg224
S'0.0133182'
p1647
sg90
g91
sg106
g107
sg226
S'0.0'
p1648
sg228
S'0.2'
p1649
sg15
S'3_2_10_1 '
p1650
sg231
S'0.0'
p1651
sg62
I00
sg116
g117
sg63
g64
sg141
Nsg17
g1633
sg233
g234
sg120
g121
sg235
g236
sg237
S'0.01'
p1652
sg239
Nsg240
S'0.02'
p1653
sg146
g147
sg23
Nsg242
S'2.8029078'
p1654
sg26
Nsg67
g68
sbsV_81b5accf0dc011deb8c6000c295e15ce
p1655
g0
(g474
g2
Ntp1656
Rp1657
(dp1658
g13
g14
sg15
S'Normal'
p1659
sg27
g14
sg28
S'Ratings for Branch 2_6_1  - Normal'
p1660
sg17
g1655
sg251
S'1876.388375'
p1661
sg65
V./data/10_Bus.xml#
p1662
sg22
g14
sg23
Nsg254
V./data/10_Bus.xml#
p1663
sg26
Nsg256
g14
sg21
g1655
sbsV_81b5acc10dc011deb8c6000c295e15ce
p1664
g0
(g258
g2
Ntp1665
Rp1666
(dp1667
g13
g14
sg141
Nsg40
Nsg203
S'100.000'
p1668
sg187
g188
sg142
g143
sg263
Nsg113
g114
sg233
g234
sg21
g1664
sg71
g72
sg27
g14
sg185
g186
sg22
g14
sg106
g107
sg264
g265
sg266
g267
sg268
g14
sg35
g36
sg47
g48
sg269
S'30.000'
p1669
sg271
g272
sg273
g14
sg168
V./data/10_Bus.xml#
p1670
sg274
g14
sg109
Nsg275
g14
sg276
S'100.0'
p1671
sg278
S'200.000'
p1672
sg280
S'200.000'
p1673
sg65
g66
sg256
Vhttp://iec.ch/TC57/2009/CIM-schema-cim14#
p1674
sg283
g14
sg57
g58
sg26
Nsg242
S'2.480625'
p1675
sg41
g42
sg28
S'           '
p1676
sg286
g287
sg135
Nsg81
S'false'
p1677
sg146
g147
sg194
g195
sg289
g14
sg214
Nsg216
g217
sg290
g14
sg291
S'2.7'
p1678
sg84
g85
sg222
S'2.6'
p1679
sg196
g197
sg294
I0
sg295
g14
sg90
g91
sg118
g119
sg296
g14
sg297
g14
sg228
S'0.03'
p1680
sg15
S"1_9 '1 ' "
p1681
sg300
S'0.01'
p1682
sg189
Nsg116
g117
sg302
F0.0
sg62
I00
sg17
g1664
sg120
g121
sg303
g14
sg304
Nsg224
S'0.0'
p1683
sg50
g51
sg63
g64
sg306
g14
sg307
Vhttp://iec.ch/TC57/2009/CIM-schema-cim14#
p1684
sg23
Nsg309
g14
sg310
Nsg67
g68
sg311
g14
sbsV_10000000000000000000000000000044
p1685
g0
(ccim14.iec61970.wires
MutualCoupling
p1686
g2
Ntp1687
Rp1688
(dp1689
g13
g14
sg228
g14
sg15
S'test'
p1690
sg320
S'0.0005'
p1691
sS'first_terminal'
p1692
V./data/10_Bus.xml#
p1693
sg17
g1685
sg326
S'0.0004'
p1694
sS'second_terminal'
p1695
V./data/10_Bus.xml#
p1696
sg21
g1685
sg22
g14
sg23
Nsg222
g14
sg27
g14
sg26
Nsg28
S'1_2 6 to 1_2 7'
p1697
sbsV_81b5aca60dc011deb8c6000c295e15ce
p1698
g0
(g837
g2
Ntp1699
Rp1700
(dp1701
g13
g14
sg841
F0.0
sg842
F0.0
sg843
S'0.000'
p1702
sg15
S'1 '
p1703
sg846
F0.0
sg847
S'0.000'
p1704
sg22
g14
sg849
S'100.000'
p1705
sg851
F0.0
sg17
g1698
sg852
g853
sg26
Nsg21
g1698
sg854
S'0.000'
p1706
sg23
Nsg856
S'false'
p1707
sg858
S'90.000'
p1708
sg27
g14
sg860
S'0.000'
p1709
sg28
g14
sbsV_81b5acc40dc011deb8c6000c295e15ce
p1710
g0
(g651
g2
Ntp1711
Rp1712
(dp1713
g655
S'-200.0'
p1714
sg657
S'-220.0'
p1715
sg26
Nsg17
g1710
sg18
V./data/10_Bus.xml#
p1716
sbsV_81b5ad090dc011deb8c6000c295e15ce
p1717
g0
(g151
g2
Ntp1718
Rp1719
(dp1720
g13
g14
sg155
g156
sg157
g158
sg65
g159
sg160
V./data/10_Bus.xml#
p1721
sg27
g14
sg161
g162
sg163
V./data/10_Bus.xml#
p1722
sg35
g165
sg166
g167
sg168
g169
sg21
g1717
sg170
Nsg28
g14
sg171
g172
sg173
S'true'
p1723
sg26
Nsg15
S'1_3_0_1 '
p1724
sg17
g1717
sg175
Nsg22
g14
sg23
Nsg176
NsbsV_81b5ad050dc011deb8c6000c295e15ce
p1725
g0
(g1017
g2
Ntp1726
Rp1727
(dp1728
g13
g14
sg1021
S'4.55'
p1729
sg1023
g1024
sg40
Nsg41
g42
sg1025
Nsg57
g58
sg71
g72
sg27
g14
sg106
g107
sg35
g36
sg47
g48
sg168
Nsg109
Nsg1027
g923
sg1029
g14
sg50
g51
sg1030
g229
sg256
g1032
sg21
g1725
sg1033
g14
sg28
S'Off-Load Tap'
p1730
sg135
Nsg84
g85
sg113
g114
sg1035
g923
sg1037
V./data/10_Bus.xml#
p1731
sg1039
S'400.0'
p1732
sg90
g91
sg1041
g496
sg15
S'1_2_0_1 '
p1733
sg116
g117
sg118
g119
sg17
g1725
sg120
g121
sg142
g143
sg22
g14
sg23
Nsg26
Nsg67
g68
sbsV_81b5acb50dc011deb8c6000c295e15ce
p1734
g0
(ccim14.iec61970.generation.production
GeneratingUnit
p1735
g2
Ntp1736
Rp1737
(dp1738
g122
g123
sg13
g14
sg46
F0.0
sg100
g14
sg69
g14
sg101
g102
sg39
g14
sg40
Nsg41
g42
sg124
g14
sg70
I00
sg142
g143
sg139
S'200.000'
p1739
sg43
g14
sg44
g14
sg103
g14
sg125
g14
sg104
g14
sg126
g14
sg45
Nsg27
g14
sg73
g74
sg105
g14
sg28
S"1 '1 '"
p1740
sg106
g107
sg120
g121
sg146
g147
sg37
g38
sg127
g14
sg108
g14
sg22
g14
sg75
g14
sg76
g14
sg47
g48
sg49
g14
sg15
S'1 '
p1741
sg77
g14
sg71
g72
sg81
S'true'
p1742
sg109
Nsg78
g14
sg50
g51
sg130
g14
sg57
g58
sg53
g14
sg131
g14
sg132
F0.0
sg110
Nsg35
g36
sg135
Nsg111
I0
sg136
F0.0
sg112
Nsg83
g14
sg84
g85
sg86
g14
sg87
I00
sg88
g14
sg89
F0.0
sg54
g14
sg59
g14
sg90
g91
sg118
g119
sg60
g14
sg17
g1734
sg62
I00
sg116
g117
sg63
g64
sg141
Nsg21
g1734
sg113
g114
sg52
F0.0
sg92
S'90.000'
p1743
sg94
Nsg95
g96
sg97
g98
sg67
g68
sg144
S'50.000'
p1744
sg134
g14
sg23
Nsg65
g66
sg26
Nsg128
g14
sg148
g149
sbsV_81b5ad410dc011deb8c6000c295e15ce
p1745
g0
(g151
g2
Ntp1746
Rp1747
(dp1748
g13
g14
sg155
g156
sg157
g158
sg65
g159
sg160
V./data/10_Bus.xml#
p1749
sg27
g14
sg161
g162
sg163
V./data/10_Bus.xml#
p1750
sg35
g165
sg166
g167
sg168
g169
sg21
g1745
sg170
Nsg28
g14
sg171
g172
sg173
S'true'
p1751
sg26
Nsg15
S'NODE 1       3'
p1752
sg17
g1745
sg175
Nsg22
g14
sg23
Nsg176
NsbsV_81b5acf30dc011deb8c6000c295e15ce
p1753
g0
(g474
g2
Ntp1754
Rp1755
(dp1756
g13
g14
sg15
S'ShortTerm'
p1757
sg27
g14
sg28
S'Ratings for Branch 5_8_1  - ShortTerm'
p1758
sg17
g1753
sg251
S'1443.375673'
p1759
sg65
V./data/10_Bus.xml#
p1760
sg22
g14
sg23
Nsg254
V./data/10_Bus.xml#
p1761
sg26
Nsg256
g14
sg21
g1753
sbsV_81b5ac860dc011deb8c6000c295e15ce
p1762
g0
(g374
g2
Ntp1763
Rp1764
(dp1765
g13
g14
sg40
Nsg41
g42
sg71
g72
sg27
g14
sg106
g107
sg163
g378
sg35
g36
sg47
g48
sg379
g380
sg109
Nsg50
g51
sg21
g1762
sg28
g14
sg381
Nsg135
Nsg84
g85
sg113
g114
sg382
g383
sg57
g58
sg90
g91
sg15
S'NODE 5      '
p1766
sg385
g386
sg116
g117
sg118
g119
sg387
V./data/10_Bus.xml#
p1767
sg17
g1762
sg120
g121
sg142
g143
sg389
g390
sg22
g14
sg23
Nsg26
Nsg67
g68
sbsV_81b5aca90dc011deb8c6000c295e15ce
p1768
g0
(g1214
g2
Ntp1769
Rp1770
(dp1771
g13
g14
sg40
Nsg185
g186
sg187
g188
sg189
Nsg1218
I0
sg65
g66
sg71
g72
sg1219
V./data/10_Bus.xml#
p1772
sg1221
g1222
sg106
g107
sg194
g195
sg1223
g14
sg27
g14
sg35
g36
sg47
g48
sg109
Nsg1224
g14
sg1225
g1226
sg21
g1768
sg28
S"3 '1 '"
p1773
sg135
Nsg1228
Nsg81
S'false'
p1774
sg22
g14
sg84
g85
sg113
g114
sg214
Nsg216
g217
sg1230
g14
sg50
g51
sg57
g58
sg196
g197
sg90
g91
sg118
g119
sg41
g42
sg15
S'1 '
p1775
sg62
I00
sg1232
g14
sg63
g64
sg141
Nsg17
g1768
sg120
g121
sg116
g117
sg142
g143
sg146
g147
sg23
Nsg233
g234
sg26
Nsg67
g68
sbsV_81b5ac770dc011deb8c6000c295e15ce
p1776
g0
(g453
g2
Ntp1777
Rp1778
(dp1779
g163
V./data/10_Bus.xml#
p1780
sg26
Nsg458
S'-3.2926'
p1781
sg17
g1776
sg460
S'373.18'
p1782
sbsV_81b5ac660dc011deb8c6000c295e15ce
p1783
g0
(g374
g2
Ntp1784
Rp1785
(dp1786
g13
g14
sg40
Nsg41
g42
sg71
g72
sg27
g14
sg106
g107
sg163
g378
sg35
g36
sg47
g48
sg379
g380
sg109
Nsg50
g51
sg21
g1783
sg28
g14
sg381
Nsg135
Nsg84
g85
sg113
g114
sg382
g383
sg57
g58
sg90
g91
sg15
S'NODE 1      '
p1787
sg385
g386
sg116
g117
sg118
g119
sg387
V./data/10_Bus.xml#
p1788
sg17
g1783
sg120
g121
sg142
g143
sg389
g390
sg22
g14
sg23
Nsg26
Nsg67
g68
sbsV_81b5ad2b0dc011deb8c6000c295e15ce
p1789
g0
(g9
g2
Ntp1790
Rp1791
(dp1792
g13
g14
sg15
S'Ratings'
p1793
sg17
g1789
sg18
V./data/10_Bus.xml#
p1794
sg20
Nsg21
g1789
sg22
g14
sg23
Nsg24
g25
sg26
Nsg27
g14
sg28
S'Ratings for Branch 4_5_0_1 '
p1795
sbsV_81b5acfd0dc011deb8c6000c295e15ce
p1796
g0
(g484
g2
Ntp1797
Rp1798
(dp1799
g13
g14
sg40
Nsg41
g42
sg21
g1796
sg488
g489
sg71
g72
sg27
g14
sg106
g107
sg490
g491
sg492
S'110.176'
p1800
sg35
g36
sg47
g48
sg18
V./data/10_Bus.xml#
p1801
sg109
Nsg50
g51
sg142
g143
sg28
g14
sg135
Nsg84
g85
sg113
g114
sg495
Nsg57
g58
sg90
g91
sg15
g496
sg116
g117
sg118
g119
sg497
S'1.133'
p1802
sg17
g1796
sg120
g121
sg499
S'true'
p1803
sg501
Vhttp://iec.ch/TC57/2009/CIM-schema-cim14#
p1804
sg22
g14
sg23
Nsg26
Nsg67
g68
sbsV_81b5ad300dc011deb8c6000c295e15ce
p1805
g0
(g474
g2
Ntp1806
Rp1807
(dp1808
g13
g14
sg15
S'Emergency'
p1809
sg27
g14
sg28
S'Ratings for Branch 4_5_0_1  - Emergency'
p1810
sg17
g1805
sg251
S'892.268598'
p1811
sg65
V./data/10_Bus.xml#
p1812
sg22
g14
sg23
Nsg254
V./data/10_Bus.xml#
p1813
sg26
Nsg256
g14
sg21
g1805
sbsV_81b5acfe0dc011deb8c6000c295e15ce
p1814
g0
(g1044
g2
Ntp1815
Rp1816
(dp1817
g1048
I0
sg26
Nsg490
V./data/10_Bus.xml#
p1818
sg17
g1814
sg1050
S'23'
p1819
sbsV_81b5ac990dc011deb8c6000c295e15ce
p1820
g0
(g1177
g2
Ntp1821
Rp1822
(dp1823
g13
g14
sg40
Nsg41
g42
sg1181
g14
sg71
g72
sg27
g14
sg106
g107
sg163
g378
sg35
g36
sg47
g48
sg379
g1182
sg109
Nsg50
g51
sg21
g1820
sg28
g14
sg135
Nsg22
g14
sg84
g85
sg113
g114
sg214
V./data/10_Bus.xml#
p1824
sg382
g383
sg1184
g14
sg90
g91
sg15
S'220.0 kV'
p1825
sg1186
Nsg385
g386
sg116
g117
sg57
g58
sg17
g1820
sg120
g121
sg142
g143
sg118
g119
sg23
Nsg26
Nsg67
g68
sbsV_81b5ad030dc011deb8c6000c295e15ce
p1826
g0
(g474
g2
Ntp1827
Rp1828
(dp1829
g13
g14
sg15
S'ShortTerm'
p1830
sg27
g14
sg28
S'Ratings for Branch 1_2_0_1  - ShortTerm'
p1831
sg17
g1826
sg251
S'909.326674'
p1832
sg65
V./data/10_Bus.xml#
p1833
sg22
g14
sg23
Nsg254
V./data/10_Bus.xml#
p1834
sg26
Nsg256
g14
sg21
g1826
sbsV_81b5ad350dc011deb8c6000c295e15ce
p1835
g0
(g1017
g2
Ntp1836
Rp1837
(dp1838
g13
g14
sg1021
S'0.5681818182'
p1839
sg1023
g1024
sg40
Nsg41
g42
sg1025
Nsg57
g58
sg71
g72
sg27
g14
sg106
g107
sg35
g36
sg47
g48
sg168
Nsg109
Nsg1027
S'33'
p1840
sg1029
g14
sg50
g51
sg1030
S'33'
p1841
sg256
g1032
sg21
g1835
sg1033
g14
sg28
S'Primary Tap'
p1842
sg135
Nsg84
g85
sg113
g114
sg1035
S'33'
p1843
sg1037
V./data/10_Bus.xml#
p1844
sg1039
S'242.0'
p1845
sg90
g91
sg1041
g496
sg15
S'5_9_0_1 '
p1846
sg116
g117
sg118
g119
sg17
g1835
sg120
g121
sg142
g143
sg22
g14
sg23
Nsg26
Nsg67
g68
sbsV_81b5acb10dc011deb8c6000c295e15ce
p1847
g0
(g1214
g2
Ntp1848
Rp1849
(dp1850
g13
g14
sg40
Nsg185
g186
sg187
g188
sg189
Nsg1218
I0
sg65
g66
sg71
g72
sg1219
V./data/10_Bus.xml#
p1851
sg1221
g1222
sg106
g107
sg194
g195
sg1223
g14
sg27
g14
sg35
g36
sg47
g48
sg109
Nsg1224
g14
sg1225
g1226
sg21
g1847
sg28
S"5 '1 '"
p1852
sg135
Nsg1228
Nsg81
S'false'
p1853
sg22
g14
sg84
g85
sg113
g114
sg214
Nsg216
g217
sg1230
g14
sg50
g51
sg57
g58
sg196
g197
sg90
g91
sg118
g119
sg41
g42
sg15
S'1 '
p1854
sg62
I00
sg1232
g14
sg63
g64
sg141
Nsg17
g1847
sg120
g121
sg116
g117
sg142
g143
sg146
g147
sg23
Nsg233
g234
sg26
Nsg67
g68
sbsV_81b5ad3b0dc011deb8c6000c295e15ce
p1855
g0
(g151
g2
Ntp1856
Rp1857
(dp1858
g13
g14
sg155
g156
sg157
g158
sg65
g159
sg160
V./data/10_Bus.xml#
p1859
sg27
g14
sg161
g162
sg163
V./data/10_Bus.xml#
p1860
sg35
g165
sg166
g167
sg168
g169
sg21
g1855
sg170
Nsg28
g14
sg171
g172
sg173
S'true'
p1861
sg26
Nsg15
S'NODE 1       1'
p1862
sg17
g1855
sg175
Nsg22
g14
sg23
Nsg176
NsbsV_81b5acb90dc011deb8c6000c295e15ce
p1863
g0
(g651
g2
Ntp1864
Rp1865
(dp1866
g655
S'-95.415'
p1867
sg657
S'-90.0'
p1868
sg26
Nsg17
g1863
sg18
V./data/10_Bus.xml#
p1869
sbsV_81b5ac850dc011deb8c6000c295e15ce
p1870
g0
(g453
g2
Ntp1871
Rp1872
(dp1873
g163
V./data/10_Bus.xml#
p1874
sg26
Nsg458
S'-4.5958'
p1875
sg17
g1870
sg460
S'365.96'
p1876
sbsV_81b5ace20dc011deb8c6000c295e15ce
p1877
g0
(g151
g2
Ntp1878
Rp1879
(dp1880
g13
g14
sg155
g156
sg157
g158
sg65
g159
sg160
V./data/10_Bus.xml#
p1881
sg27
g14
sg161
g162
sg163
V./data/10_Bus.xml#
p1882
sg35
g165
sg166
g167
sg168
g169
sg21
g1877
sg170
Nsg28
g14
sg171
g172
sg173
S'true'
p1883
sg26
Nsg15
S'1 '
p1884
sg17
g1877
sg175
Nsg22
g14
sg23
Nsg176
NsbsV_81b5ad490dc011deb8c6000c295e15ce
p1885
g0
(g725
g2
Ntp1886
Rp1887
(dp1888
g26
Nsg729
g496
sg730
I0
sg17
g1885
sg731
V./data/10_Bus.xml#
p1889
sbsV_81b5accd0dc011deb8c6000c295e15ce
p1890
g0
(g9
g2
Ntp1891
Rp1892
(dp1893
g13
g14
sg15
S'Ratings'
p1894
sg17
g1890
sg18
V./data/10_Bus.xml#
p1895
sg20
Nsg21
g1890
sg22
g14
sg23
Nsg24
g25
sg26
Nsg27
g14
sg28
S'Ratings for Branch 2_6_1 '
p1896
sbsV_81b5ad1a0dc011deb8c6000c295e15ce
p1897
g0
(g1017
g2
Ntp1898
Rp1899
(dp1900
g13
g14
sg1021
S'0.625'
p1901
sg1023
g1024
sg40
Nsg41
g42
sg1025
Nsg57
g58
sg71
g72
sg27
g14
sg106
g107
sg35
g36
sg47
g48
sg168
Nsg109
Nsg1027
S'17'
p1902
sg1029
g14
sg50
g51
sg1030
S'17'
p1903
sg256
g1032
sg21
g1897
sg1033
g14
sg28
S'Primary Tap'
p1904
sg135
Nsg84
g85
sg113
g114
sg1035
S'33'
p1905
sg1037
V./data/10_Bus.xml#
p1906
sg1039
S'220.0'
p1907
sg90
g91
sg1041
g496
sg15
S'3_2_10_1 '
p1908
sg116
g117
sg118
g119
sg17
g1897
sg120
g121
sg142
g143
sg22
g14
sg23
Nsg26
Nsg67
g68
sbsV_81b5ace40dc011deb8c6000c295e15ce
p1909
g0
(g474
g2
Ntp1910
Rp1911
(dp1912
g13
g14
sg15
S'Normal'
p1913
sg27
g14
sg28
S'Ratings for Branch 4_6_1  - Normal'
p1914
sg17
g1909
sg251
S'1443.375673'
p1915
sg65
V./data/10_Bus.xml#
p1916
sg22
g14
sg23
Nsg254
V./data/10_Bus.xml#
p1917
sg26
Nsg256
g14
sg21
g1909
sbsV_81b5acb20dc011deb8c6000c295e15ce
p1918
g0
(g837
g2
Ntp1919
Rp1920
(dp1921
g13
g14
sg841
F0.0
sg842
F0.0
sg843
S'25.000'
p1922
sg15
S'1 '
p1923
sg846
F0.0
sg847
S'33.000'
p1924
sg22
g14
sg849
S'400.000'
p1925
sg851
F0.0
sg17
g1918
sg852
g853
sg26
Nsg21
g1918
sg854
S'50.000'
p1926
sg23
Nsg856
S'false'
p1927
sg858
S'250.000'
p1928
sg27
g14
sg860
S'43.000'
p1929
sg28
g14
sbsV_81b5ad4b0dc011deb8c6000c295e15ce
p1930
g0
(g883
g2
Ntp1931
Rp1932
(dp1933
g13
g14
sg141
Nsg118
g119
sg887
g14
sg40
Nsg185
g186
sg187
g188
sg189
Nsg113
g114
sg233
g234
sg21
g1930
sg71
g72
sg27
g14
sg106
g107
sg120
g121
sg194
g195
sg268
g14
sg35
g36
sg47
g48
sg271
g272
sg168
V./data/10_Bus.xml#
p1934
sg274
g14
sg109
Nsg889
I0
sg50
g51
sg142
g143
sg41
g42
sg28
S'SWSH0'
p1935
sg135
Nsg81
S'false'
p1936
sg22
g14
sg892
Nsg84
g85
sg214
V./data/10_Bus.xml#
p1937
sg894
g14
sg216
g217
sg57
g58
sg196
g197
sg895
g14
sg90
g91
sg896
I0
sg897
g14
sg898
S'0.004'
p1938
sg15
S'NODE 4       1'
p1939
sg901
g14
sg116
g117
sg63
g64
sg62
I00
sg17
g1930
sg902
g496
sg903
g496
sg146
g147
sg23
Nsg65
g66
sg26
Nsg904
S'0.001'
p1940
sg67
g68
sg906
g14
sbsV_81b5ac720dc011deb8c6000c295e15ce
p1941
g0
(g453
g2
Ntp1942
Rp1943
(dp1944
g163
V./data/10_Bus.xml#
p1945
sg26
Nsg458
S'-7.1381'
p1946
sg17
g1941
sg460
S'110.0'
p1947
sbsV_81b5acb70dc011deb8c6000c295e15ce
p1948
g0
(g151
g2
Ntp1949
Rp1950
(dp1951
g13
g14
sg155
g156
sg157
g158
sg65
g159
sg160
V./data/10_Bus.xml#
p1952
sg27
g14
sg161
g162
sg163
V./data/10_Bus.xml#
p1953
sg35
g165
sg166
g167
sg168
g169
sg21
g1948
sg170
Nsg28
g14
sg171
g172
sg173
S'true'
p1954
sg26
Nsg15
S'1 '
p1955
sg17
g1948
sg175
Nsg22
g14
sg23
Nsg176
NsbsV_81b5ad290dc011deb8c6000c295e15ce
p1956
g0
(g484
g2
Ntp1957
Rp1958
(dp1959
g13
g14
sg40
Nsg41
g42
sg21
g1956
sg488
g489
sg71
g72
sg27
g14
sg106
g107
sg490
g491
sg492
S'400.0'
p1960
sg35
g36
sg47
g48
sg18
V./data/10_Bus.xml#
p1961
sg109
Nsg50
g51
sg142
g143
sg28
g14
sg135
Nsg84
g85
sg113
g114
sg495
Nsg57
g58
sg90
g91
sg15
g1132
sg116
g117
sg118
g119
sg497
S'40.0'
p1962
sg17
g1956
sg120
g121
sg499
S'true'
p1963
sg501
Vhttp://iec.ch/TC57/2009/CIM-schema-cim14#
p1964
sg22
g14
sg23
Nsg26
Nsg67
g68
sbsV_81b5ad110dc011deb8c6000c295e15ce
p1965
g0
(g151
g2
Ntp1966
Rp1967
(dp1968
g13
g14
sg155
g156
sg157
g158
sg65
g159
sg160
V./data/10_Bus.xml#
p1969
sg27
g14
sg161
g162
sg163
V./data/10_Bus.xml#
p1970
sg35
g165
sg166
g167
sg168
g169
sg21
g1965
sg170
Nsg28
g14
sg171
g172
sg173
S'true'
p1971
sg26
Nsg15
S'1_3_0_1 '
p1972
sg17
g1965
sg175
Nsg22
g14
sg23
Nsg176
NsbsV_81b5acdc0dc011deb8c6000c295e15ce
p1973
g0
(g9
g2
Ntp1974
Rp1975
(dp1976
g13
g14
sg15
S'Ratings'
p1977
sg17
g1973
sg18
V./data/10_Bus.xml#
p1978
sg20
Nsg21
g1973
sg22
g14
sg23
Nsg24
g25
sg26
Nsg27
g14
sg28
S'Ratings for Branch 3_8_1 '
p1979
sbsV_81b5acd60dc011deb8c6000c295e15ce
p1980
g0
(g474
g2
Ntp1981
Rp1982
(dp1983
g13
g14
sg15
S'Normal'
p1984
sg27
g14
sg28
S'Ratings for Branch 2_7_1  - Normal'
p1985
sg17
g1980
sg251
S'1732.050808'
p1986
sg65
V./data/10_Bus.xml#
p1987
sg22
g14
sg23
Nsg254
V./data/10_Bus.xml#
p1988
sg26
Nsg256
g14
sg21
g1980
sbsV_81b5acce0dc011deb8c6000c295e15ce
p1989
g0
(g1391
g2
Ntp1990
Rp1991
(dp1992
g1395
g1396
sg1397
Vhttp://iec.ch/TC57/2009/CIM-schema-cim14#
p1993
sg26
Nsg1399
g554
sg17
g1989
sbsV_81b5ace50dc011deb8c6000c295e15ce
p1994
g0
(g474
g2
Ntp1995
Rp1996
(dp1997
g13
g14
sg15
S'ShortTerm'
p1998
sg27
g14
sg28
S'Ratings for Branch 4_6_1  - ShortTerm'
p1999
sg17
g1994
sg251
S'1515.544457'
p2000
sg65
V./data/10_Bus.xml#
p2001
sg22
g14
sg23
Nsg254
V./data/10_Bus.xml#
p2002
sg26
Nsg256
g14
sg21
g1994
sbsV_81b5ace70dc011deb8c6000c295e15ce
p2003
g0
(g313
g2
Ntp2004
Rp2005
(dp2006
g13
g14
sg40
Nsg185
g186
sg187
g188
sg317
g318
sg189
Nsg113
g114
sg233
g234
sg71
g72
sg27
S'10T-AT-DE-000118'
p2007
sg106
g107
sg194
g195
sg320
S'0.0002'
p2008
sg322
S'0.0002'
p2009
sg35
g36
sg47
g48
sg109
Nsg41
g42
sg50
g51
sg65
g66
sg21
g2003
sg28
S'Westtirol-Silz 1 . L-XWE_SI23-AT-DE.'
p2010
sg135
Nsg81
S'false'
p2011
sg22
g14
sg84
g85
sg326
S'0.0002'
p2012
sg214
V./data/10_Bus.xml#
p2013
sg216
g217
sg57
g58
sg228
S'0.564'
p2014
sg222
S'4.148'
p2015
sg196
g197
sg90
g91
sg118
g119
sg331
g332
sg333
S'0.0000518687'
p2016
sg15
S"1_4 7 '1 ' "
p2017
sg62
I00
sg116
g117
sg63
g64
sg141
Nsg336
Nsg17
g2003
sg120
g121
sg224
S'0.464'
p2018
sg142
g143
sg146
g147
sg23
Nsg242
S'4.048'
p2019
sg26
Nsg67
g68
sbsV_81b5ac640dc011deb8c6000c295e15ce
p2020
g0
(ccim14.iec61970
IEC61970CIMVersion
p2021
g2
Ntp2022
Rp2023
(dp2024
S'date'
p2025
S'2009-02-04'
p2026
sg26
NsS'version'
p2027
S'IEC61970CIM14v02'
p2028
sg17
g2020
sbsV_81b5ad180dc011deb8c6000c295e15ce
p2029
g0
(g178
g2
Ntp2030
Rp2031
(dp2032
g13
g14
sg182
g14
sg118
g119
sg183
g184
sg40
Nsg185
g186
sg187
g188
sg142
g143
sg189
Nsg190
S'0.002'
p2033
sg21
g2029
sg71
g72
sg27
g14
sg192
Vhttp://iec.ch/TC57/2009/CIM-schema-cim14#
p2034
sg194
g195
sg196
g197
sg198
I00
sg199
Vhttp://iec.ch/TC57/2009/CIM-schema-cim14#
p2035
sg35
g36
sg47
g48
sg201
S'0.00'
p2036
sg203
S'0.00'
p2037
sg109
Nsg205
S'220.0'
p2038
sg41
g42
sg50
g51
sg81
I00
sg65
g66
sg57
g58
sg207
Nsg28
S'3_2_10_1  From Winding'
p2039
sg209
S'0.001'
p2040
sg135
Nsg211
g212
sg22
g14
sg84
g85
sg213
Nsg113
g114
sg214
V./data/10_Bus.xml#
p2041
sg216
g217
sg218
g219
sg220
S'0.00'
p2042
sg222
S'124'
p2043
sg224
S'0.32912'
p2044
sg90
g91
sg106
g107
sg226
S'-0.0000025413'
p2045
sg228
S'0.4'
p2046
sg15
S'3_2_10_1 '
p2047
sg231
S'0.0'
p2048
sg62
I00
sg116
g117
sg63
g64
sg141
Nsg17
g2029
sg233
g234
sg120
g121
sg235
g236
sg237
S'0.01'
p2049
sg239
Nsg240
S'0.02'
p2050
sg146
g147
sg23
Nsg242
S'123.42'
p2051
sg26
Nsg67
g68
sbsV_81b5ace00dc011deb8c6000c295e15ce
p2052
g0
(g313
g2
Ntp2053
Rp2054
(dp2055
g13
g14
sg40
Nsg185
g186
sg187
g188
sg317
g318
sg189
Nsg113
g114
sg233
g234
sg71
g72
sg27
S'10T-AT-DE-00010A'
p2056
sg106
g107
sg194
g195
sg320
S'0.0003'
p2057
sg322
S'0.0002'
p2058
sg35
g36
sg47
g48
sg109
Nsg41
g42
sg50
g51
sg65
g66
sg21
g2052
sg28
S'Westtirol-Prutz 2 . L-XWE_PR28-AT-DE.'
p2059
sg135
Nsg81
S'false'
p2060
sg22
g14
sg84
g85
sg326
S'0.0001'
p2061
sg214
V./data/10_Bus.xml#
p2062
sg216
g217
sg57
g58
sg228
S'2.09'
p2063
sg222
S'25.0'
p2064
sg196
g197
sg90
g91
sg118
g119
sg331
g332
sg333
S'0.000314'
p2065
sg15
S"1_4 6 '1 ' "
p2066
sg62
I00
sg116
g117
sg63
g64
sg141
Nsg336
Nsg17
g2052
sg120
g121
sg224
S'2.08'
p2067
sg142
g143
sg146
g147
sg23
Nsg242
S'24.0'
p2068
sg26
Nsg67
g68
sbsV_10100000000000000000000000000088
p2069
g0
(g245
g2
Ntp2070
Rp2071
(dp2072
g13
g14
sg15
S'Low'
p2073
sg27
g14
sg28
S'EnergyConsumer 1 - LowVoltage'
p2074
sg17
g2069
sg251
S'111'
p2075
sg65
V./data/10_Bus.xml#
p2076
sg22
g14
sg23
Nsg254
V./data/10_Bus.xml#
p2077
sg26
Nsg256
g14
sg21
g2069
sbsV_81b5ac9c0dc011deb8c6000c295e15ce
p2078
g0
(g400
g2
Ntp2079
Rp2080
(dp2081
g13
g14
sg404
I00
sg41
Nsg405
g14
sg406
g14
sg407
I00
sg27
g14
sg409
Nsg410
V./data/10_Bus.xml#
p2082
sg18
g412
sg21
g2078
sg413
V./data/10_Bus.xml#
p2083
sg415
S'236'
p2084
sg416
g14
sg417
g14
sg28
S'new configuration long term only           '
p2085
sg22
g14
sg419
Nsg420
g1132
sg421
Nsg15
S'9_NODE 9'
p2086
sg423
I00
sg424
g923
sg385
g425
sg17
g2078
sg426
S'5'
p2087
sg427
V./data/10_Bus.xml#
p2088
sg23
Nsg26
NsbsV_81b5aca50dc011deb8c6000c295e15ce
p2089
g0
(g1214
g2
Ntp2090
Rp2091
(dp2092
g13
g14
sg40
Nsg185
g186
sg187
g188
sg189
Nsg1218
I0
sg65
g66
sg71
g72
sg1219
V./data/10_Bus.xml#
p2093
sg1221
g1222
sg106
g107
sg194
g195
sg1223
g14
sg27
g14
sg35
g36
sg47
g48
sg109
Nsg1224
g14
sg1225
g1226
sg21
g2089
sg28
S"1 '1 '"
p2094
sg135
Nsg1228
Nsg81
S'false'
p2095
sg22
g14
sg84
g85
sg113
g114
sg214
Nsg216
g217
sg1230
g14
sg50
g51
sg57
g58
sg196
g197
sg90
g91
sg118
g119
sg41
g42
sg15
S'1 '
p2096
sg62
I00
sg1232
g14
sg63
g64
sg141
Nsg17
g2089
sg120
g121
sg116
g117
sg142
g143
sg146
g147
sg23
Nsg233
g234
sg26
Nsg67
g68
sbsV_81b5ac9d0dc011deb8c6000c295e15ce
p2097
g0
(g1177
g2
Ntp2098
Rp2099
(dp2100
g13
g14
sg40
Nsg41
g42
sg1181
g14
sg71
g72
sg27
g14
sg106
g107
sg163
g378
sg35
g36
sg47
g48
sg379
g1182
sg109
Nsg50
g51
sg21
g2097
sg28
g14
sg135
Nsg22
g14
sg84
g85
sg113
g114
sg214
V./data/10_Bus.xml#
p2101
sg382
g383
sg1184
g14
sg90
g91
sg15
S'15.8 kV'
p2102
sg1186
Nsg385
g386
sg116
g117
sg57
g58
sg17
g2097
sg120
g121
sg142
g143
sg118
g119
sg23
Nsg26
Nsg67
g68
sbsV_81b5ad340dc011deb8c6000c295e15ce
p2103
g0
(g151
g2
Ntp2104
Rp2105
(dp2106
g13
g14
sg155
g156
sg157
g158
sg65
g159
sg160
V./data/10_Bus.xml#
p2107
sg27
g14
sg161
g162
sg163
V./data/10_Bus.xml#
p2108
sg35
g165
sg166
g167
sg168
g169
sg21
g2103
sg170
Nsg28
g14
sg171
g172
sg173
S'true'
p2109
sg26
Nsg15
S'5_9_0_1 '
p2110
sg17
g2103
sg175
Nsg22
g14
sg23
Nsg176
NsbsV_81b5acfa0dc011deb8c6000c295e15ce
p2111
g0
(g474
g2
Ntp2112
Rp2113
(dp2114
g13
g14
sg15
S'ShortTerm'
p2115
sg27
g14
sg28
S'Ratings for Branch 1_2_0_1  - ShortTerm'
p2116
sg17
g2111
sg251
S'3306.642451'
p2117
sg65
V./data/10_Bus.xml#
p2118
sg22
g14
sg23
Nsg254
V./data/10_Bus.xml#
p2119
sg26
Nsg256
g14
sg21
g2111
sbsV_81b5acc20dc011deb8c6000c295e15ce
p2120
g0
(g151
g2
Ntp2121
Rp2122
(dp2123
g13
g14
sg155
g156
sg157
g158
sg65
g159
sg160
V./data/10_Bus.xml#
p2124
sg27
g14
sg161
g162
sg163
V./data/10_Bus.xml#
p2125
sg35
g165
sg166
g167
sg168
g169
sg21
g2120
sg170
Nsg28
g14
sg171
g172
sg173
S'true'
p2126
sg26
Nsg15
S'1 '
p2127
sg17
g2120
sg175
Nsg22
g14
sg23
Nsg176
NsbsV_81b5aca40dc011deb8c6000c295e15ce
p2128
g0
(g453
g2
Ntp2129
Rp2130
(dp2131
g163
V./data/10_Bus.xml#
p2132
sg26
Nsg458
S'16.5449'
p2133
sg17
g2128
sg460
S'22.10334'
p2134
sbsV_81b5accb0dc011deb8c6000c295e15ce
p2135
g0
(g151
g2
Ntp2136
Rp2137
(dp2138
g13
g14
sg155
g156
sg157
g158
sg65
g159
sg160
V./data/10_Bus.xml#
p2139
sg27
g14
sg161
g162
sg163
V./data/10_Bus.xml#
p2140
sg35
g165
sg166
g167
sg168
g169
sg21
g2135
sg170
Nsg28
g14
sg171
g172
sg173
S'true'
p2141
sg26
Nsg15
S'1 '
p2142
sg17
g2135
sg175
Nsg22
g14
sg23
Nsg176
NsbsV_81b5acca0dc011deb8c6000c295e15ce
p2143
g0
(g313
g2
Ntp2144
Rp2145
(dp2146
g13
g14
sg40
Nsg185
g186
sg187
g188
sg317
g318
sg189
Nsg113
g114
sg233
g234
sg71
g72
sg27
S'10T-AT-DE-000061'
p2147
sg106
g107
sg194
g195
sg320
S'0.0002'
p2148
sg322
S'0.0001'
p2149
sg35
g36
sg47
g48
sg109
Nsg41
g42
sg50
g51
sg65
g66
sg21
g2143
sg28
S'Westtirol-B\\xfcrs 2 .L-XWE_BR21-AT-DE.'
p2150
sg135
Nsg81
S'false'
p2151
sg22
g14
sg84
g85
sg326
S'0.0001'
p2152
sg214
V./data/10_Bus.xml#
p2153
sg216
g217
sg57
g58
sg228
S'0.874'
p2154
sg222
S'12.916'
p2155
sg196
g197
sg90
g91
sg118
g119
sg331
g332
sg333
S'0.00013'
p2156
sg15
S"1_2 6 '1 ' "
p2157
sg62
I00
sg116
g117
sg63
g64
sg141
Nsg336
Nsg17
g2143
sg120
g121
sg224
S'0.864'
p2158
sg142
g143
sg146
g147
sg23
Nsg242
S'12.816'
p2159
sg26
Nsg67
g68
sbsV_81b5ac680dc011deb8c6000c295e15ce
p2160
g0
(g1177
g2
Ntp2161
Rp2162
(dp2163
g13
g14
sg40
Nsg41
g42
sg1181
g14
sg71
g72
sg27
g14
sg106
g107
sg163
g378
sg35
g36
sg47
g48
sg379
g1182
sg109
Nsg50
g51
sg21
g2160
sg28
g14
sg135
Nsg22
g14
sg84
g85
sg113
g114
sg214
V./data/10_Bus.xml#
p2164
sg382
g383
sg1184
g14
sg90
g91
sg15
S'110.0 kV'
p2165
sg1186
Nsg385
g386
sg116
g117
sg57
g58
sg17
g2160
sg120
g121
sg142
g143
sg118
g119
sg23
Nsg26
Nsg67
g68
sbsV_81b5acd50dc011deb8c6000c295e15ce
p2166
g0
(g9
g2
Ntp2167
Rp2168
(dp2169
g13
g14
sg15
S'Ratings'
p2170
sg17
g2166
sg18
V./data/10_Bus.xml#
p2171
sg20
Nsg21
g2166
sg22
g14
sg23
Nsg24
g25
sg26
Nsg27
g14
sg28
S'Ratings for Branch 2_7_1 '
p2172
sbsV_60070020000000000000000000000099
p2173
g0
(g151
g2
Ntp2174
Rp2175
(dp2176
g13
g14
sg155
g156
sg157
g158
sg65
g159
sg160
V./data/10_Bus.xml#
p2177
sg27
g14
sg161
g162
sg163
Nsg35
g165
sg166
g167
sg168
g169
sg21
g2173
sg170
Nsg28
g14
sg171
g172
sg173
I00
sg26
Nsg15
S'6to7_2'
p2178
sg17
g2173
sg175
Nsg22
g14
sg23
Nsg176
NsbsV_81b5ad080dc011deb8c6000c295e15ce
p2179
g0
(g178
g2
Ntp2180
Rp2181
(dp2182
g13
g14
sg182
g14
sg118
g119
sg183
g184
sg40
Nsg185
g186
sg187
g188
sg142
g143
sg189
Nsg190
S'0.002'
p2183
sg21
g2179
sg71
g72
sg27
g14
sg192
Vhttp://iec.ch/TC57/2009/CIM-schema-cim14#
p2184
sg194
g195
sg196
g197
sg198
I00
sg199
Vhttp://iec.ch/TC57/2009/CIM-schema-cim14#
p2185
sg35
g36
sg47
g48
sg201
S'620.00'
p2186
sg203
S'650.00'
p2187
sg109
Nsg205
S'110.0'
p2188
sg41
g42
sg50
g51
sg81
I00
sg65
g66
sg57
g58
sg207
Nsg28
S'1_3_0_1  From Winding'
p2189
sg209
S'0.001'
p2190
sg135
Nsg211
g212
sg22
g14
sg84
g85
sg213
Nsg113
g114
sg214
V./data/10_Bus.xml#
p2191
sg216
g217
sg218
g219
sg220
S'630.00'
p2192
sg222
S'9.4'
p2193
sg224
S'0.2057'
p2194
sg90
g91
sg106
g107
sg226
S'0.0'
p2195
sg228
S'0.1'
p2196
sg15
S'1_3_0_1 '
p2197
sg231
S'0.0'
p2198
sg62
I00
sg116
g117
sg63
g64
sg141
Nsg17
g2179
sg233
g234
sg120
g121
sg235
g236
sg237
S'0.01'
p2199
sg239
Nsg240
S'0.02'
p2200
sg146
g147
sg23
Nsg242
S'9.30732'
p2201
sg26
Nsg67
g68
sbsV_81b5ad460dc011deb8c6000c295e15ce
p2202
g0
(g484
g2
Ntp2203
Rp2204
(dp2205
g13
g14
sg40
Nsg41
g42
sg21
g2202
sg488
g489
sg71
g72
sg27
g14
sg106
g107
sg490
g491
sg492
S'406.0'
p2206
sg35
g36
sg47
g48
sg18
V./data/10_Bus.xml#
p2207
sg109
Nsg50
g51
sg142
g143
sg28
g14
sg135
Nsg84
g85
sg113
g114
sg495
Nsg57
g58
sg90
g91
sg15
g229
sg116
g117
sg118
g119
sg497
S'14.0'
p2208
sg17
g2202
sg120
g121
sg499
S'true'
p2209
sg501
Vhttp://iec.ch/TC57/2009/CIM-schema-cim14#
p2210
sg22
g14
sg23
Nsg26
Nsg67
g68
sbsV_81b5acff0dc011deb8c6000c295e15ce
p2211
g0
(g9
g2
Ntp2212
Rp2213
(dp2214
g13
g14
sg15
S'Ratings'
p2215
sg17
g2211
sg18
V./data/10_Bus.xml#
p2216
sg20
Nsg21
g2211
sg22
g14
sg23
Nsg24
g25
sg26
Nsg27
g14
sg28
S'Ratings for Branch 1_2_0_1 '
p2217
sbsV_81b5ad380dc011deb8c6000c295e15ce
p2218
g0
(g151
g2
Ntp2219
Rp2220
(dp2221
g13
g14
sg155
g156
sg157
g158
sg65
g159
sg160
V./data/10_Bus.xml#
p2222
sg27
g14
sg161
g162
sg163
V./data/10_Bus.xml#
p2223
sg35
g165
sg166
g167
sg168
g169
sg21
g2218
sg170
Nsg28
g14
sg171
g172
sg173
S'true'
p2224
sg26
Nsg15
S'5_9_0_1 '
p2225
sg17
g2218
sg175
Nsg22
g14
sg23
Nsg176
NsbsV_81b5acd90dc011deb8c6000c295e15ce
p2226
g0
(g313
g2
Ntp2227
Rp2228
(dp2229
g13
g14
sg40
Nsg185
g186
sg187
g188
sg317
g318
sg189
Nsg113
g114
sg233
g234
sg71
g72
sg27
S'10T-AT-DE-00009W'
p2230
sg106
g107
sg194
g195
sg320
S'0.0002'
p2231
sg322
S'0.0001'
p2232
sg35
g36
sg47
g48
sg109
Nsg41
g42
sg50
g51
sg65
g66
sg21
g2226
sg28
S'Westtirol-Prutz 1 . L-XWE_PR27-AT-DE. New project. To be finalized in 2015'
p2233
sg135
Nsg81
S'true'
p2234
sg22
g14
sg84
g85
sg326
S'0.0003'
p2235
sg214
V./data/10_Bus.xml#
p2236
sg216
g217
sg57
g58
sg228
S'4.36404'
p2237
sg222
S'26.8214'
p2238
sg196
g197
sg90
g91
sg118
g119
sg331
g332
sg333
S'0.0001845041'
p2239
sg15
S"1_3 8 '1 ' "
p2240
sg62
I00
sg116
g117
sg63
g64
sg141
Nsg336
Nsg17
g2226
sg120
g121
sg224
S'4.26404'
p2241
sg142
g143
sg146
g147
sg23
Nsg242
S'25.8214'
p2242
sg26
Nsg67
g68
sbsV_81b5aca70dc011deb8c6000c295e15ce
p2243
g0
(g151
g2
Ntp2244
Rp2245
(dp2246
g13
g14
sg155
g156
sg157
g158
sg65
g159
sg160
V./data/10_Bus.xml#
p2247
sg27
g14
sg161
g162
sg163
V./data/10_Bus.xml#
p2248
sg35
g165
sg166
g167
sg168
g169
sg21
g2243
sg170
Nsg28
g14
sg171
g172
sg173
S'true'
p2249
sg26
Nsg15
S'1 '
p2250
sg17
g2243
sg175
Nsg22
g14
sg23
Nsg176
NsbsV_81b5ad200dc011deb8c6000c295e15ce
p2251
g0
(g151
g2
Ntp2252
Rp2253
(dp2254
g13
g14
sg155
g156
sg157
g158
sg65
g159
sg160
V./data/10_Bus.xml#
p2255
sg27
g14
sg161
g162
sg163
V./data/10_Bus.xml#
p2256
sg35
g165
sg166
g167
sg168
g169
sg21
g2251
sg170
Nsg28
g14
sg171
g172
sg173
S'true'
p2257
sg26
Nsg15
S'3_2_10_1 '
p2258
sg17
g2251
sg175
Nsg22
g14
sg23
Nsg176
NsbsV_81b5ad010dc011deb8c6000c295e15ce
p2259
g0
(g151
g2
Ntp2260
Rp2261
(dp2262
g13
g14
sg155
g156
sg157
g158
sg65
g159
sg160
V./data/10_Bus.xml#
p2263
sg27
g14
sg161
g162
sg163
V./data/10_Bus.xml#
p2264
sg35
g165
sg166
g167
sg168
g169
sg21
g2259
sg170
Nsg28
g14
sg171
g172
sg173
S'true'
p2265
sg26
Nsg15
S'1_2_0_1 '
p2266
sg17
g2259
sg175
Nsg22
g14
sg23
Nsg176
NsbsV_81b5aca20dc011deb8c6000c295e15ce
p2267
g0
(g1177
g2
Ntp2268
Rp2269
(dp2270
g13
g14
sg40
Nsg41
g42
sg1181
g14
sg71
g72
sg27
g14
sg106
g107
sg163
g378
sg35
g36
sg47
g48
sg379
g1182
sg109
Nsg50
g51
sg21
g2267
sg28
g14
sg135
Nsg22
g14
sg84
g85
sg113
g114
sg214
V./data/10_Bus.xml#
p2271
sg382
g383
sg1184
g14
sg90
g91
sg15
S'21.0 kV'
p2272
sg1186
Nsg385
g386
sg116
g117
sg57
g58
sg17
g2267
sg120
g121
sg142
g143
sg118
g119
sg23
Nsg26
Nsg67
g68
sbsV_81b5acf60dc011deb8c6000c295e15ce
p2273
g0
(g9
g2
Ntp2274
Rp2275
(dp2276
g13
g14
sg15
S'Ratings'
p2277
sg17
g2273
sg18
V./data/10_Bus.xml#
p2278
sg20
Nsg21
g2273
sg22
g14
sg23
Nsg24
g25
sg26
Nsg27
g14
sg28
S'Ratings for Branch 1_2_0_1 '
p2279
sbsV_81b5ad0f0dc011deb8c6000c295e15ce
p2280
g0
(g9
g2
Ntp2281
Rp2282
(dp2283
g13
g14
sg15
S'Ratings'
p2284
sg17
g2280
sg18
V./data/10_Bus.xml#
p2285
sg20
Nsg21
g2280
sg22
g14
sg23
Nsg24
g25
sg26
Nsg27
g14
sg28
S'Ratings for Branch 1_3_0_1 '
p2286
sbsV_81b5ad280dc011deb8c6000c295e15ce
p2287
g0
(g1017
g2
Ntp2288
Rp2289
(dp2290
g13
g14
sg1021
S'0.7923185371'
p2291
sg1023
g1024
sg40
Nsg41
g42
sg1025
Nsg57
g58
sg71
g72
sg27
g14
sg106
g107
sg35
g36
sg47
g48
sg168
V./data/10_Bus.xml#
p2292
sg109
Nsg1027
S'20'
p2293
sg1029
g14
sg50
g51
sg1030
S'25'
p2294
sg256
g1032
sg21
g2287
sg1033
g14
sg28
S'Primary Tap'
p2295
sg135
Nsg84
g85
sg113
g114
sg1035
S'25'
p2296
sg1037
V./data/10_Bus.xml#
p2297
sg1039
S'386.5466666667'
p2298
sg90
g91
sg1041
g496
sg15
S'4_5_0_1 '
p2299
sg116
g117
sg118
g119
sg17
g2287
sg120
g121
sg142
g143
sg22
g14
sg23
Nsg26
Nsg67
g68
sbsV_81b5ad4d0dc011deb8c6000c295e15ce
p2300
g0
(g725
g2
Ntp2301
Rp2302
(dp2303
g26
Nsg729
g496
sg730
I0
sg17
g2300
sg731
V./data/10_Bus.xml#
p2304
sbsV_81b5ad150dc011deb8c6000c295e15ce
p2305
g0
(g1017
g2
Ntp2306
Rp2307
(dp2308
g13
g14
sg1021
S'4.55'
p2309
sg1023
g1024
sg40
Nsg41
g42
sg1025
Nsg57
g58
sg71
g72
sg27
g14
sg106
g107
sg35
g36
sg47
g48
sg168
Nsg109
Nsg1027
g923
sg1029
g14
sg50
g51
sg1030
g229
sg256
g1032
sg21
g2305
sg1033
g14
sg28
S'Off-Load Tap'
p2310
sg135
Nsg84
g85
sg113
g114
sg1035
g923
sg1037
V./data/10_Bus.xml#
p2311
sg1039
S'220.0'
p2312
sg90
g91
sg1041
g496
sg15
S'1_3_0_1 '
p2313
sg116
g117
sg118
g119
sg17
g2305
sg120
g121
sg142
g143
sg22
g14
sg23
Nsg26
Nsg67
g68
sbsV_00000000000000000000000000000288
p2314
g0
(g1391
g2
Ntp2315
Rp2316
(dp2317
g1395
g1396
sg1397
Vhttp://iec.ch/TC57/2009/CIM-schema-cim14#
p2318
sg26
Nsg1399
g554
sg17
g2314
sbsV_81b5acaa0dc011deb8c6000c295e15ce
p2319
g0
(g837
g2
Ntp2320
Rp2321
(dp2322
g13
g14
sg841
F0.0
sg842
F0.0
sg843
S'0.000'
p2323
sg15
S'1 '
p2324
sg846
F0.0
sg847
S'0.000'
p2325
sg22
g14
sg849
S'200.000'
p2326
sg851
F0.0
sg17
g2319
sg852
g853
sg26
Nsg21
g2319
sg854
S'0.000'
p2327
sg23
Nsg856
S'false'
p2328
sg858
S'50.000'
p2329
sg27
g14
sg860
S'0.000'
p2330
sg28
g14
sbsV_81b5acac0dc011deb8c6000c295e15ce
p2331
g0
(g651
g2
Ntp2332
Rp2333
(dp2334
g655
S'50.0'
p2335
sg657
S'200.0'
p2336
sg26
Nsg17
g2331
sg18
V./data/10_Bus.xml#
p2337
sbsV_81b5ac7b0dc011deb8c6000c295e15ce
p2338
g0
(g441
g2
Ntp2339
Rp2340
(dp2341
g13
g14
sg15
g14
sg22
g14
sg445
S'220.0'
p2342
sg17
g2338
sg21
g2338
sg447
S'false'
p2343
sg160
g449
sg23
Nsg450
g451
sg26
Nsg27
g14
sg28
g14
sbsV_81b5acd70dc011deb8c6000c295e15ce
p2344
g0
(g474
g2
Ntp2345
Rp2346
(dp2347
g13
g14
sg15
S'ShortTerm'
p2348
sg27
g14
sg28
S'Ratings for Branch 2_7_1  - ShortTerm'
p2349
sg17
g2344
sg251
S'1804.219591'
p2350
sg65
V./data/10_Bus.xml#
p2351
sg22
g14
sg23
Nsg254
V./data/10_Bus.xml#
p2352
sg26
Nsg256
g14
sg21
g2344
sbsV_81b5acea0dc011deb8c6000c295e15ce
p2353
g0
(g9
g2
Ntp2354
Rp2355
(dp2356
g13
g14
sg15
S'Ratings'
p2357
sg17
g2353
sg18
V./data/10_Bus.xml#
p2358
sg20
Nsg21
g2353
sg22
g14
sg23
Nsg24
g25
sg26
Nsg27
g14
sg28
S'Ratings for Branch 4_7_1 '
p2359
sbsV_81b5ad1c0dc011deb8c6000c295e15ce
p2360
g0
(g178
g2
Ntp2361
Rp2362
(dp2363
g13
g14
sg182
g14
sg118
g119
sg183
g184
sg40
Nsg185
g186
sg187
g188
sg142
g143
sg189
Nsg190
S'0.002'
p2364
sg21
g2360
sg71
g72
sg27
g14
sg192
Vhttp://iec.ch/TC57/2009/CIM-schema-cim14#
p2365
sg194
g195
sg196
g197
sg198
I00
sg199
Vhttp://iec.ch/TC57/2009/CIM-schema-cim14#
p2366
sg35
g36
sg47
g48
sg201
S'0.00'
p2367
sg203
S'0.00'
p2368
sg109
Nsg205
S'400.0'
p2369
sg41
g42
sg50
g51
sg81
I00
sg65
g66
sg57
g58
sg207
Nsg28
S'3_2_10_1  To Winding'
p2370
sg209
S'0.001'
p2371
sg135
Nsg211
g212
sg22
g14
sg84
g85
sg213
Nsg113
g114
sg214
V./data/10_Bus.xml#
p2372
sg216
g217
sg218
g219
sg220
S'0.00'
p2373
sg222
g554
sg224
S'0.912'
p2374
sg90
g91
sg106
g107
sg226
S'0.0'
p2375
sg228
S'0.6'
p2376
sg15
S'3_2_10_1 '
p2377
sg231
S'0.0'
p2378
sg62
I00
sg116
g117
sg63
g64
sg141
Nsg17
g2360
sg233
g234
sg120
g121
sg235
g236
sg237
S'0.01'
p2379
sg239
Nsg240
S'0.02'
p2380
sg146
g147
sg23
Nsg242
S'-278.176'
p2381
sg26
Nsg67
g68
sbsV_81b5aca10dc011deb8c6000c295e15ce
p2382
g0
(g400
g2
Ntp2383
Rp2384
(dp2385
g13
g14
sg404
I00
sg41
Nsg405
g14
sg406
g14
sg407
I00
sg27
g14
sg409
Nsg410
V./data/10_Bus.xml#
p2386
sg18
g412
sg21
g2382
sg413
V./data/10_Bus.xml#
p2387
sg415
S'300'
p2388
sg416
g14
sg417
g14
sg28
S'           '
p2389
sg22
g14
sg419
Nsg420
g2087
sg421
Nsg15
S'10_NODE 10'
p2390
sg423
I00
sg424
g1132
sg385
g425
sg17
g2382
sg426
S'6'
p2391
sg427
V./data/10_Bus.xml#
p2392
sg23
Nsg26
NsbsV_81b5acc50dc011deb8c6000c295e15ce
p2393
g0
(g1735
g2
Ntp2394
Rp2395
(dp2396
g122
g123
sg13
g14
sg46
F0.0
sg100
g14
sg69
g14
sg101
g102
sg39
g14
sg40
Nsg41
g42
sg124
g14
sg70
I00
sg142
g143
sg139
S'200.000'
p2397
sg43
g14
sg44
g14
sg103
g14
sg125
g14
sg104
g14
sg126
g14
sg45
Nsg27
g14
sg73
g74
sg105
g14
sg28
S'            '
p2398
sg106
g107
sg120
g121
sg146
g147
sg37
g38
sg127
g14
sg108
g14
sg22
g14
sg75
g14
sg76
g14
sg47
g48
sg49
g14
sg15
S"1_10 '1 ' "
p2399
sg77
g14
sg71
g72
sg81
S'false'
p2400
sg109
Nsg78
g14
sg50
g51
sg130
g14
sg57
g58
sg53
g14
sg131
g14
sg132
F0.0
sg110
Nsg35
g36
sg135
Nsg111
I0
sg136
F0.0
sg112
Nsg83
g14
sg84
g85
sg86
g14
sg87
I00
sg88
g14
sg89
F0.0
sg54
g14
sg59
g14
sg90
g91
sg118
g119
sg60
g14
sg17
g2393
sg62
I00
sg116
g117
sg63
g64
sg141
Nsg21
g2393
sg113
g114
sg52
F0.0
sg92
S'118.170'
p2401
sg94
Nsg95
g96
sg97
g98
sg67
g68
sg144
S'50.000'
p2402
sg134
g14
sg23
Nsg65
g66
sg26
Nsg128
g14
sg148
g149
sbsV_81b5ac980dc011deb8c6000c295e15ce
p2403
g0
(g400
g2
Ntp2404
Rp2405
(dp2406
g13
g14
sg404
I00
sg41
Nsg405
g14
sg406
g14
sg407
I00
sg27
S'10T-AT-CH-00002V'
p2407
sg409
Nsg410
V./data/10_Bus.xml#
p2408
sg18
g412
sg21
g2403
sg413
V./data/10_Bus.xml#
p2409
sg415
g14
sg416
g14
sg417
g14
sg28
S'           '
p2410
sg22
g14
sg419
Nsg420
F0.0
sg421
Nsg15
S'8_NODE 8'
p2411
sg423
I00
sg424
F0.0
sg385
g425
sg17
g2403
sg426
F0.0
sg427
V./data/10_Bus.xml#
p2412
sg23
Nsg26
NsbsV_81b5ace30dc011deb8c6000c295e15ce
p2413
g0
(g9
g2
Ntp2414
Rp2415
(dp2416
g13
g14
sg15
S'Ratings'
p2417
sg17
g2413
sg18
V./data/10_Bus.xml#
p2418
sg20
Nsg21
g2413
sg22
g14
sg23
Nsg24
g25
sg26
Nsg27
g14
sg28
S'Ratings for Branch 4_6_1 '
p2419
sbsV_81b5acbc0dc011deb8c6000c295e15ce
p2420
g0
(g151
g2
Ntp2421
Rp2422
(dp2423
g13
g14
sg155
g156
sg157
g158
sg65
g159
sg160
V./data/10_Bus.xml#
p2424
sg27
g14
sg161
g162
sg163
V./data/10_Bus.xml#
p2425
sg35
g165
sg166
g167
sg168
g169
sg21
g2420
sg170
Nsg28
g14
sg171
g172
sg173
S'true'
p2426
sg26
Nsg15
S'1 '
p2427
sg17
g2420
sg175
Nsg22
g14
sg23
Nsg176
NsbsV_81b5ac840dc011deb8c6000c295e15ce
p2428
g0
(g983
g2
Ntp2429
Rp2430
(dp2431
g13
g14
sg15
S'AREA 2      '
p2432
sg17
g2428
sg988
g989
sg21
g2428
sg22
g14
sg23
Nsg26
Nsg27
g14
sg28
g14
sbsV_81b5acab0dc011deb8c6000c295e15ce
p2433
g0
(g151
g2
Ntp2434
Rp2435
(dp2436
g13
g14
sg155
g156
sg157
g158
sg65
g159
sg160
V./data/10_Bus.xml#
p2437
sg27
g14
sg161
g162
sg163
V./data/10_Bus.xml#
p2438
sg35
g165
sg166
g167
sg168
g169
sg21
g2433
sg170
Nsg28
g14
sg171
g172
sg173
S'true'
p2439
sg26
Nsg15
S'1 '
p2440
sg17
g2433
sg175
Nsg22
g14
sg23
Nsg176
NsbsV_81b5ac9a0dc011deb8c6000c295e15ce
p2441
g0
(g453
g2
Ntp2442
Rp2443
(dp2444
g163
V./data/10_Bus.xml#
p2445
sg26
Nsg458
S'-1.9706'
p2446
sg17
g2441
sg460
S'216.2798'
p2447
sbsV_81b5acbe0dc011deb8c6000c295e15ce
p2448
g0
(g651
g2
Ntp2449
Rp2450
(dp2451
g655
S'-199.301'
p2452
sg657
S'-666.369'
p2453
sg26
Nsg17
g2448
sg18
V./data/10_Bus.xml#
p2454
sbsV_60007001000000000000000000000099
p2455
g0
(g151
g2
Ntp2456
Rp2457
(dp2458
g13
g14
sg155
g156
sg157
g158
sg65
g159
sg160
Nsg27
g14
sg161
g162
sg163
V./data/10_Bus.xml#
p2459
sg35
g165
sg166
g167
sg168
g169
sg21
g2455
sg170
Nsg28
g14
sg171
g172
sg173
S'false'
p2460
sg26
Nsg15
g14
sg17
g2455
sg175
Nsg22
g14
sg23
Nsg176
NsbsV_81b5ad4c0dc011deb8c6000c295e15ce
p2461
g0
(g151
g2
Ntp2462
Rp2463
(dp2464
g13
g14
sg155
g156
sg157
g158
sg65
g159
sg160
V./data/10_Bus.xml#
p2465
sg27
g14
sg161
g162
sg163
V./data/10_Bus.xml#
p2466
sg35
g165
sg166
g167
sg168
g169
sg21
g2461
sg170
Nsg28
g14
sg171
g172
sg173
S'true'
p2467
sg26
Nsg15
S'NODE 4       1'
p2468
sg17
g2461
sg175
Nsg22
g14
sg23
Nsg176
NsbsV_81b5ad330dc011deb8c6000c295e15ce
p2469
g0
(g178
g2
Ntp2470
Rp2471
(dp2472
g13
g14
sg182
g14
sg118
g119
sg183
g184
sg40
Nsg185
g186
sg187
g188
sg142
g143
sg189
Nsg190
S'0.002'
p2473
sg21
g2469
sg71
g72
sg27
g14
sg192
Vhttp://iec.ch/TC57/2009/CIM-schema-cim14#
p2474
sg194
g195
sg196
g197
sg198
I00
sg199
Vhttp://iec.ch/TC57/2009/CIM-schema-cim14#
p2475
sg35
g36
sg47
g48
sg201
S'0.00'
p2476
sg203
S'250.00'
p2477
sg109
Nsg205
S'242.0'
p2478
sg41
g42
sg50
g51
sg81
I00
sg65
g66
sg57
g58
sg207
Nsg28
S'5_9_0_1  From Winding'
p2479
sg209
S'0.001'
p2480
sg135
Nsg211
g212
sg22
g14
sg84
g85
sg213
Nsg113
g114
sg214
V./data/10_Bus.xml#
p2481
sg216
g217
sg218
g219
sg220
S'0.00'
p2482
sg222
S'29'
p2483
sg224
S'0.5036504'
p2484
sg90
g91
sg106
g107
sg226
S'-0.0000172632'
p2485
sg228
S'0.6'
p2486
sg15
S'5_9_0_1 '
p2487
sg231
S'0.0000036029'
p2488
sg62
I00
sg116
g117
sg63
g64
sg141
Nsg17
g2469
sg233
g234
sg120
g121
sg235
g236
sg237
S'0.01'
p2489
sg239
Nsg240
S'0.02'
p2490
sg146
g147
sg23
Nsg242
S'28.1048636'
p2491
sg26
Nsg67
g68
sbsV_81b5acf40dc011deb8c6000c295e15ce
p2492
g0
(g474
g2
Ntp2493
Rp2494
(dp2495
g13
g14
sg15
S'Emergency'
p2496
sg27
g14
sg28
S'Ratings for Branch 5_8_1  - Emergency'
p2497
sg17
g2492
sg251
S'1180.943732'
p2498
sg65
V./data/10_Bus.xml#
p2499
sg22
g14
sg23
Nsg254
V./data/10_Bus.xml#
p2500
sg26
Nsg256
g14
sg21
g2492
sbsV_81b5acf00dc011deb8c6000c295e15ce
p2501
g0
(g151
g2
Ntp2502
Rp2503
(dp2504
g13
g14
sg155
g156
sg157
g158
sg65
g159
sg160
V./data/10_Bus.xml#
p2505
sg27
g14
sg161
g162
sg163
V./data/10_Bus.xml#
p2506
sg35
g165
sg166
g167
sg168
g169
sg21
g2501
sg170
Nsg28
g14
sg171
g172
sg173
S'true'
p2507
sg26
Nsg15
S'1 '
p2508
sg17
g2501
sg175
Nsg22
g14
sg23
Nsg176
NsbsV_81b5ac7a0dc011deb8c6000c295e15ce
p2509
g0
(g1177
g2
Ntp2510
Rp2511
(dp2512
g13
g14
sg40
Nsg41
g42
sg1181
g14
sg71
g72
sg27
g14
sg106
g107
sg163
g378
sg35
g36
sg47
g48
sg379
g1182
sg109
Nsg50
g51
sg21
g2509
sg28
g14
sg135
Nsg22
g14
sg84
g85
sg113
g114
sg214
V./data/10_Bus.xml#
p2513
sg382
g383
sg1184
g14
sg90
g91
sg15
S'220.0 kV'
p2514
sg1186
Nsg385
g386
sg116
g117
sg57
g58
sg17
g2509
sg120
g121
sg142
g143
sg118
g119
sg23
Nsg26
Nsg67
g68
sbsV_81b5acc60dc011deb8c6000c295e15ce
p2515
g0
(g258
g2
Ntp2516
Rp2517
(dp2518
g13
g14
sg141
Nsg40
Nsg203
S'100.000'
p2519
sg187
g188
sg142
g143
sg263
Nsg113
g114
sg233
g234
sg21
g2515
sg71
g72
sg27
g14
sg185
g186
sg22
g14
sg106
g107
sg264
g265
sg266
g267
sg268
g14
sg35
g36
sg47
g48
sg269
S'-200.000'
p2520
sg271
g272
sg273
g14
sg168
V./data/10_Bus.xml#
p2521
sg274
g14
sg109
Nsg275
g14
sg276
S'100.0'
p2522
sg278
S'60.000'
p2523
sg280
S'60.000'
p2524
sg65
g66
sg256
Vhttp://iec.ch/TC57/2009/CIM-schema-cim14#
p2525
sg283
g14
sg57
g58
sg26
Nsg242
S'4.41'
p2526
sg41
g42
sg28
S'        '
p2527
sg286
g287
sg135
Nsg81
S'false'
p2528
sg146
g147
sg194
g195
sg289
g14
sg214
Nsg216
g217
sg290
g14
sg291
S'4.7'
p2529
sg84
g85
sg222
S'4.6'
p2530
sg196
g197
sg294
I0
sg295
g14
sg90
g91
sg118
g119
sg296
g14
sg297
g14
sg228
S'0.01'
p2531
sg15
S"1_10 '1 ' "
p2532
sg300
S'0.04'
p2533
sg189
Nsg116
g117
sg302
F0.0
sg62
I00
sg17
g2515
sg120
g121
sg303
g14
sg304
Nsg224
S'0.0'
p2534
sg50
g51
sg63
g64
sg306
g14
sg307
Vhttp://iec.ch/TC57/2009/CIM-schema-cim14#
p2535
sg23
Nsg309
g14
sg310
Nsg67
g68
sg311
g14
sbsV_81b5accc0dc011deb8c6000c295e15ce
p2536
g0
(g151
g2
Ntp2537
Rp2538
(dp2539
g13
g14
sg155
g156
sg157
g158
sg65
g159
sg160
V./data/10_Bus.xml#
p2540
sg27
g14
sg161
g162
sg163
V./data/10_Bus.xml#
p2541
sg35
g165
sg166
g167
sg168
g169
sg21
g2536
sg170
Nsg28
g14
sg171
g172
sg173
S'true'
p2542
sg26
Nsg15
S'1 '
p2543
sg17
g2536
sg175
Nsg22
g14
sg23
Nsg176
NsbsV_81b5ac920dc011deb8c6000c295e15ce
p2544
g0
(g453
g2
Ntp2545
Rp2546
(dp2547
g163
V./data/10_Bus.xml#
p2548
sg26
Nsg458
S'-3.7528'
p2549
sg17
g2544
sg460
S'371.372'
p2550
sbsV_81b5acbd0dc011deb8c6000c295e15ce
p2551
g0
(g484
g2
Ntp2552
Rp2553
(dp2554
g13
g14
sg40
Nsg41
g42
sg21
g2551
sg488
g489
sg71
g72
sg27
g14
sg106
g107
sg490
g491
sg492
S'220.0'
p2555
sg35
g36
sg47
g48
sg18
V./data/10_Bus.xml#
p2556
sg109
Nsg50
g51
sg142
g143
sg28
g14
sg135
Nsg84
g85
sg113
g114
sg495
Nsg57
g58
sg90
g91
sg15
g2087
sg116
g117
sg118
g119
sg497
S'0.0'
p2557
sg17
g2551
sg120
g121
sg499
S'false'
p2558
sg501
Vhttp://iec.ch/TC57/2009/CIM-schema-cim14#
p2559
sg22
g14
sg23
Nsg26
Nsg67
g68
sbsV_81b5acbf0dc011deb8c6000c295e15ce
p2560
g0
(g765
g2
Ntp2561
Rp2562
(dp2563
g304
V./data/10_Bus.xml#
p2564
sg26
Nsg770
g771
sg413
V./data/10_Bus.xml#
p2565
sg17
g2560
sbssb.